
rtarget:     file format elf64-x86-64


Disassembly of section .init:

0000000000400bb0 <_init>:
  400bb0:	48 83 ec 08          	sub    $0x8,%rsp
  400bb4:	48 8b 05 3d 44 20 00 	mov    0x20443d(%rip),%rax        # 604ff8 <__gmon_start__>
  400bbb:	48 85 c0             	test   %rax,%rax
  400bbe:	74 02                	je     400bc2 <_init+0x12>
  400bc0:	ff d0                	callq  *%rax
  400bc2:	48 83 c4 08          	add    $0x8,%rsp
  400bc6:	c3                   	retq   

Disassembly of section .plt:

0000000000400bd0 <.plt>:
  400bd0:	ff 35 32 44 20 00    	pushq  0x204432(%rip)        # 605008 <_GLOBAL_OFFSET_TABLE_+0x8>
  400bd6:	ff 25 34 44 20 00    	jmpq   *0x204434(%rip)        # 605010 <_GLOBAL_OFFSET_TABLE_+0x10>
  400bdc:	0f 1f 40 00          	nopl   0x0(%rax)

0000000000400be0 <strcasecmp@plt>:
  400be0:	ff 25 32 44 20 00    	jmpq   *0x204432(%rip)        # 605018 <strcasecmp@GLIBC_2.2.5>
  400be6:	68 00 00 00 00       	pushq  $0x0
  400beb:	e9 e0 ff ff ff       	jmpq   400bd0 <.plt>

0000000000400bf0 <__errno_location@plt>:
  400bf0:	ff 25 2a 44 20 00    	jmpq   *0x20442a(%rip)        # 605020 <__errno_location@GLIBC_2.2.5>
  400bf6:	68 01 00 00 00       	pushq  $0x1
  400bfb:	e9 d0 ff ff ff       	jmpq   400bd0 <.plt>

0000000000400c00 <srandom@plt>:
  400c00:	ff 25 22 44 20 00    	jmpq   *0x204422(%rip)        # 605028 <srandom@GLIBC_2.2.5>
  400c06:	68 02 00 00 00       	pushq  $0x2
  400c0b:	e9 c0 ff ff ff       	jmpq   400bd0 <.plt>

0000000000400c10 <strncmp@plt>:
  400c10:	ff 25 1a 44 20 00    	jmpq   *0x20441a(%rip)        # 605030 <strncmp@GLIBC_2.2.5>
  400c16:	68 03 00 00 00       	pushq  $0x3
  400c1b:	e9 b0 ff ff ff       	jmpq   400bd0 <.plt>

0000000000400c20 <strcpy@plt>:
  400c20:	ff 25 12 44 20 00    	jmpq   *0x204412(%rip)        # 605038 <strcpy@GLIBC_2.2.5>
  400c26:	68 04 00 00 00       	pushq  $0x4
  400c2b:	e9 a0 ff ff ff       	jmpq   400bd0 <.plt>

0000000000400c30 <puts@plt>:
  400c30:	ff 25 0a 44 20 00    	jmpq   *0x20440a(%rip)        # 605040 <puts@GLIBC_2.2.5>
  400c36:	68 05 00 00 00       	pushq  $0x5
  400c3b:	e9 90 ff ff ff       	jmpq   400bd0 <.plt>

0000000000400c40 <write@plt>:
  400c40:	ff 25 02 44 20 00    	jmpq   *0x204402(%rip)        # 605048 <write@GLIBC_2.2.5>
  400c46:	68 06 00 00 00       	pushq  $0x6
  400c4b:	e9 80 ff ff ff       	jmpq   400bd0 <.plt>

0000000000400c50 <mmap@plt>:
  400c50:	ff 25 fa 43 20 00    	jmpq   *0x2043fa(%rip)        # 605050 <mmap@GLIBC_2.2.5>
  400c56:	68 07 00 00 00       	pushq  $0x7
  400c5b:	e9 70 ff ff ff       	jmpq   400bd0 <.plt>

0000000000400c60 <printf@plt>:
  400c60:	ff 25 f2 43 20 00    	jmpq   *0x2043f2(%rip)        # 605058 <printf@GLIBC_2.2.5>
  400c66:	68 08 00 00 00       	pushq  $0x8
  400c6b:	e9 60 ff ff ff       	jmpq   400bd0 <.plt>

0000000000400c70 <memset@plt>:
  400c70:	ff 25 ea 43 20 00    	jmpq   *0x2043ea(%rip)        # 605060 <memset@GLIBC_2.2.5>
  400c76:	68 09 00 00 00       	pushq  $0x9
  400c7b:	e9 50 ff ff ff       	jmpq   400bd0 <.plt>

0000000000400c80 <alarm@plt>:
  400c80:	ff 25 e2 43 20 00    	jmpq   *0x2043e2(%rip)        # 605068 <alarm@GLIBC_2.2.5>
  400c86:	68 0a 00 00 00       	pushq  $0xa
  400c8b:	e9 40 ff ff ff       	jmpq   400bd0 <.plt>

0000000000400c90 <close@plt>:
  400c90:	ff 25 da 43 20 00    	jmpq   *0x2043da(%rip)        # 605070 <close@GLIBC_2.2.5>
  400c96:	68 0b 00 00 00       	pushq  $0xb
  400c9b:	e9 30 ff ff ff       	jmpq   400bd0 <.plt>

0000000000400ca0 <read@plt>:
  400ca0:	ff 25 d2 43 20 00    	jmpq   *0x2043d2(%rip)        # 605078 <read@GLIBC_2.2.5>
  400ca6:	68 0c 00 00 00       	pushq  $0xc
  400cab:	e9 20 ff ff ff       	jmpq   400bd0 <.plt>

0000000000400cb0 <signal@plt>:
  400cb0:	ff 25 ca 43 20 00    	jmpq   *0x2043ca(%rip)        # 605080 <signal@GLIBC_2.2.5>
  400cb6:	68 0d 00 00 00       	pushq  $0xd
  400cbb:	e9 10 ff ff ff       	jmpq   400bd0 <.plt>

0000000000400cc0 <gethostbyname@plt>:
  400cc0:	ff 25 c2 43 20 00    	jmpq   *0x2043c2(%rip)        # 605088 <gethostbyname@GLIBC_2.2.5>
  400cc6:	68 0e 00 00 00       	pushq  $0xe
  400ccb:	e9 00 ff ff ff       	jmpq   400bd0 <.plt>

0000000000400cd0 <fprintf@plt>:
  400cd0:	ff 25 ba 43 20 00    	jmpq   *0x2043ba(%rip)        # 605090 <fprintf@GLIBC_2.2.5>
  400cd6:	68 0f 00 00 00       	pushq  $0xf
  400cdb:	e9 f0 fe ff ff       	jmpq   400bd0 <.plt>

0000000000400ce0 <strtol@plt>:
  400ce0:	ff 25 b2 43 20 00    	jmpq   *0x2043b2(%rip)        # 605098 <strtol@GLIBC_2.2.5>
  400ce6:	68 10 00 00 00       	pushq  $0x10
  400ceb:	e9 e0 fe ff ff       	jmpq   400bd0 <.plt>

0000000000400cf0 <memcpy@plt>:
  400cf0:	ff 25 aa 43 20 00    	jmpq   *0x2043aa(%rip)        # 6050a0 <memcpy@GLIBC_2.14>
  400cf6:	68 11 00 00 00       	pushq  $0x11
  400cfb:	e9 d0 fe ff ff       	jmpq   400bd0 <.plt>

0000000000400d00 <time@plt>:
  400d00:	ff 25 a2 43 20 00    	jmpq   *0x2043a2(%rip)        # 6050a8 <time@GLIBC_2.2.5>
  400d06:	68 12 00 00 00       	pushq  $0x12
  400d0b:	e9 c0 fe ff ff       	jmpq   400bd0 <.plt>

0000000000400d10 <random@plt>:
  400d10:	ff 25 9a 43 20 00    	jmpq   *0x20439a(%rip)        # 6050b0 <random@GLIBC_2.2.5>
  400d16:	68 13 00 00 00       	pushq  $0x13
  400d1b:	e9 b0 fe ff ff       	jmpq   400bd0 <.plt>

0000000000400d20 <_IO_getc@plt>:
  400d20:	ff 25 92 43 20 00    	jmpq   *0x204392(%rip)        # 6050b8 <_IO_getc@GLIBC_2.2.5>
  400d26:	68 14 00 00 00       	pushq  $0x14
  400d2b:	e9 a0 fe ff ff       	jmpq   400bd0 <.plt>

0000000000400d30 <__isoc99_sscanf@plt>:
  400d30:	ff 25 8a 43 20 00    	jmpq   *0x20438a(%rip)        # 6050c0 <__isoc99_sscanf@GLIBC_2.7>
  400d36:	68 15 00 00 00       	pushq  $0x15
  400d3b:	e9 90 fe ff ff       	jmpq   400bd0 <.plt>

0000000000400d40 <munmap@plt>:
  400d40:	ff 25 82 43 20 00    	jmpq   *0x204382(%rip)        # 6050c8 <munmap@GLIBC_2.2.5>
  400d46:	68 16 00 00 00       	pushq  $0x16
  400d4b:	e9 80 fe ff ff       	jmpq   400bd0 <.plt>

0000000000400d50 <bcopy@plt>:
  400d50:	ff 25 7a 43 20 00    	jmpq   *0x20437a(%rip)        # 6050d0 <bcopy@GLIBC_2.2.5>
  400d56:	68 17 00 00 00       	pushq  $0x17
  400d5b:	e9 70 fe ff ff       	jmpq   400bd0 <.plt>

0000000000400d60 <fopen@plt>:
  400d60:	ff 25 72 43 20 00    	jmpq   *0x204372(%rip)        # 6050d8 <fopen@GLIBC_2.2.5>
  400d66:	68 18 00 00 00       	pushq  $0x18
  400d6b:	e9 60 fe ff ff       	jmpq   400bd0 <.plt>

0000000000400d70 <getopt@plt>:
  400d70:	ff 25 6a 43 20 00    	jmpq   *0x20436a(%rip)        # 6050e0 <getopt@GLIBC_2.2.5>
  400d76:	68 19 00 00 00       	pushq  $0x19
  400d7b:	e9 50 fe ff ff       	jmpq   400bd0 <.plt>

0000000000400d80 <strtoul@plt>:
  400d80:	ff 25 62 43 20 00    	jmpq   *0x204362(%rip)        # 6050e8 <strtoul@GLIBC_2.2.5>
  400d86:	68 1a 00 00 00       	pushq  $0x1a
  400d8b:	e9 40 fe ff ff       	jmpq   400bd0 <.plt>

0000000000400d90 <gethostname@plt>:
  400d90:	ff 25 5a 43 20 00    	jmpq   *0x20435a(%rip)        # 6050f0 <gethostname@GLIBC_2.2.5>
  400d96:	68 1b 00 00 00       	pushq  $0x1b
  400d9b:	e9 30 fe ff ff       	jmpq   400bd0 <.plt>

0000000000400da0 <sprintf@plt>:
  400da0:	ff 25 52 43 20 00    	jmpq   *0x204352(%rip)        # 6050f8 <sprintf@GLIBC_2.2.5>
  400da6:	68 1c 00 00 00       	pushq  $0x1c
  400dab:	e9 20 fe ff ff       	jmpq   400bd0 <.plt>

0000000000400db0 <exit@plt>:
  400db0:	ff 25 4a 43 20 00    	jmpq   *0x20434a(%rip)        # 605100 <exit@GLIBC_2.2.5>
  400db6:	68 1d 00 00 00       	pushq  $0x1d
  400dbb:	e9 10 fe ff ff       	jmpq   400bd0 <.plt>

0000000000400dc0 <connect@plt>:
  400dc0:	ff 25 42 43 20 00    	jmpq   *0x204342(%rip)        # 605108 <connect@GLIBC_2.2.5>
  400dc6:	68 1e 00 00 00       	pushq  $0x1e
  400dcb:	e9 00 fe ff ff       	jmpq   400bd0 <.plt>

0000000000400dd0 <socket@plt>:
  400dd0:	ff 25 3a 43 20 00    	jmpq   *0x20433a(%rip)        # 605110 <socket@GLIBC_2.2.5>
  400dd6:	68 1f 00 00 00       	pushq  $0x1f
  400ddb:	e9 f0 fd ff ff       	jmpq   400bd0 <.plt>

Disassembly of section .text:

0000000000400de0 <_start>:
  400de0:	31 ed                	xor    %ebp,%ebp
  400de2:	49 89 d1             	mov    %rdx,%r9
  400de5:	5e                   	pop    %rsi
  400de6:	48 89 e2             	mov    %rsp,%rdx
  400de9:	48 83 e4 f0          	and    $0xfffffffffffffff0,%rsp
  400ded:	50                   	push   %rax
  400dee:	54                   	push   %rsp
  400def:	49 c7 c0 10 2e 40 00 	mov    $0x402e10,%r8
  400df6:	48 c7 c1 a0 2d 40 00 	mov    $0x402da0,%rcx
  400dfd:	48 c7 c7 8d 10 40 00 	mov    $0x40108d,%rdi
  400e04:	ff 15 e6 41 20 00    	callq  *0x2041e6(%rip)        # 604ff0 <__libc_start_main@GLIBC_2.2.5>
  400e0a:	f4                   	hlt    
  400e0b:	0f 1f 44 00 00       	nopl   0x0(%rax,%rax,1)

0000000000400e10 <deregister_tm_clones>:
  400e10:	b8 97 54 60 00       	mov    $0x605497,%eax
  400e15:	55                   	push   %rbp
  400e16:	48 2d 90 54 60 00    	sub    $0x605490,%rax
  400e1c:	48 83 f8 0e          	cmp    $0xe,%rax
  400e20:	48 89 e5             	mov    %rsp,%rbp
  400e23:	76 1b                	jbe    400e40 <deregister_tm_clones+0x30>
  400e25:	b8 00 00 00 00       	mov    $0x0,%eax
  400e2a:	48 85 c0             	test   %rax,%rax
  400e2d:	74 11                	je     400e40 <deregister_tm_clones+0x30>
  400e2f:	5d                   	pop    %rbp
  400e30:	bf 90 54 60 00       	mov    $0x605490,%edi
  400e35:	ff e0                	jmpq   *%rax
  400e37:	66 0f 1f 84 00 00 00 	nopw   0x0(%rax,%rax,1)
  400e3e:	00 00 
  400e40:	5d                   	pop    %rbp
  400e41:	c3                   	retq   
  400e42:	0f 1f 40 00          	nopl   0x0(%rax)
  400e46:	66 2e 0f 1f 84 00 00 	nopw   %cs:0x0(%rax,%rax,1)
  400e4d:	00 00 00 

0000000000400e50 <register_tm_clones>:
  400e50:	be 90 54 60 00       	mov    $0x605490,%esi
  400e55:	55                   	push   %rbp
  400e56:	48 81 ee 90 54 60 00 	sub    $0x605490,%rsi
  400e5d:	48 c1 fe 03          	sar    $0x3,%rsi
  400e61:	48 89 e5             	mov    %rsp,%rbp
  400e64:	48 89 f0             	mov    %rsi,%rax
  400e67:	48 c1 e8 3f          	shr    $0x3f,%rax
  400e6b:	48 01 c6             	add    %rax,%rsi
  400e6e:	48 d1 fe             	sar    %rsi
  400e71:	74 15                	je     400e88 <register_tm_clones+0x38>
  400e73:	b8 00 00 00 00       	mov    $0x0,%eax
  400e78:	48 85 c0             	test   %rax,%rax
  400e7b:	74 0b                	je     400e88 <register_tm_clones+0x38>
  400e7d:	5d                   	pop    %rbp
  400e7e:	bf 90 54 60 00       	mov    $0x605490,%edi
  400e83:	ff e0                	jmpq   *%rax
  400e85:	0f 1f 00             	nopl   (%rax)
  400e88:	5d                   	pop    %rbp
  400e89:	c3                   	retq   
  400e8a:	66 0f 1f 44 00 00    	nopw   0x0(%rax,%rax,1)

0000000000400e90 <__do_global_dtors_aux>:
  400e90:	80 3d 31 46 20 00 00 	cmpb   $0x0,0x204631(%rip)        # 6054c8 <completed.6972>
  400e97:	75 11                	jne    400eaa <__do_global_dtors_aux+0x1a>
  400e99:	55                   	push   %rbp
  400e9a:	48 89 e5             	mov    %rsp,%rbp
  400e9d:	e8 6e ff ff ff       	callq  400e10 <deregister_tm_clones>
  400ea2:	5d                   	pop    %rbp
  400ea3:	c6 05 1e 46 20 00 01 	movb   $0x1,0x20461e(%rip)        # 6054c8 <completed.6972>
  400eaa:	f3 c3                	repz retq 
  400eac:	0f 1f 40 00          	nopl   0x0(%rax)

0000000000400eb0 <frame_dummy>:
  400eb0:	bf 18 4e 60 00       	mov    $0x604e18,%edi
  400eb5:	48 83 3f 00          	cmpq   $0x0,(%rdi)
  400eb9:	75 05                	jne    400ec0 <frame_dummy+0x10>
  400ebb:	eb 93                	jmp    400e50 <register_tm_clones>
  400ebd:	0f 1f 00             	nopl   (%rax)
  400ec0:	b8 00 00 00 00       	mov    $0x0,%eax
  400ec5:	48 85 c0             	test   %rax,%rax
  400ec8:	74 f1                	je     400ebb <frame_dummy+0xb>
  400eca:	55                   	push   %rbp
  400ecb:	48 89 e5             	mov    %rsp,%rbp
  400ece:	ff d0                	callq  *%rax
  400ed0:	5d                   	pop    %rbp
  400ed1:	e9 7a ff ff ff       	jmpq   400e50 <register_tm_clones>

0000000000400ed6 <usage>:
  400ed6:	48 83 ec 08          	sub    $0x8,%rsp
  400eda:	48 89 fe             	mov    %rdi,%rsi
  400edd:	83 3d 24 46 20 00 00 	cmpl   $0x0,0x204624(%rip)        # 605508 <is_checker>
  400ee4:	74 4b                	je     400f31 <usage+0x5b>
  400ee6:	48 8d 3d 3b 1f 00 00 	lea    0x1f3b(%rip),%rdi        # 402e28 <_IO_stdin_used+0x8>
  400eed:	b8 00 00 00 00       	mov    $0x0,%eax
  400ef2:	e8 69 fd ff ff       	callq  400c60 <printf@plt>
  400ef7:	48 8d 3d 62 1f 00 00 	lea    0x1f62(%rip),%rdi        # 402e60 <_IO_stdin_used+0x40>
  400efe:	e8 2d fd ff ff       	callq  400c30 <puts@plt>
  400f03:	48 8d 3d 8e 20 00 00 	lea    0x208e(%rip),%rdi        # 402f98 <_IO_stdin_used+0x178>
  400f0a:	e8 21 fd ff ff       	callq  400c30 <puts@plt>
  400f0f:	48 8d 3d 72 1f 00 00 	lea    0x1f72(%rip),%rdi        # 402e88 <_IO_stdin_used+0x68>
  400f16:	e8 15 fd ff ff       	callq  400c30 <puts@plt>
  400f1b:	48 8d 3d 90 20 00 00 	lea    0x2090(%rip),%rdi        # 402fb2 <_IO_stdin_used+0x192>
  400f22:	e8 09 fd ff ff       	callq  400c30 <puts@plt>
  400f27:	bf 00 00 00 00       	mov    $0x0,%edi
  400f2c:	e8 7f fe ff ff       	callq  400db0 <exit@plt>
  400f31:	48 8d 3d 96 20 00 00 	lea    0x2096(%rip),%rdi        # 402fce <_IO_stdin_used+0x1ae>
  400f38:	b8 00 00 00 00       	mov    $0x0,%eax
  400f3d:	e8 1e fd ff ff       	callq  400c60 <printf@plt>
  400f42:	48 8d 3d 67 1f 00 00 	lea    0x1f67(%rip),%rdi        # 402eb0 <_IO_stdin_used+0x90>
  400f49:	e8 e2 fc ff ff       	callq  400c30 <puts@plt>
  400f4e:	48 8d 3d 83 1f 00 00 	lea    0x1f83(%rip),%rdi        # 402ed8 <_IO_stdin_used+0xb8>
  400f55:	e8 d6 fc ff ff       	callq  400c30 <puts@plt>
  400f5a:	48 8d 3d 8b 20 00 00 	lea    0x208b(%rip),%rdi        # 402fec <_IO_stdin_used+0x1cc>
  400f61:	e8 ca fc ff ff       	callq  400c30 <puts@plt>
  400f66:	eb bf                	jmp    400f27 <usage+0x51>

0000000000400f68 <initialize_target>:
  400f68:	55                   	push   %rbp
  400f69:	53                   	push   %rbx
  400f6a:	48 81 ec 08 21 00 00 	sub    $0x2108,%rsp
  400f71:	89 f5                	mov    %esi,%ebp
  400f73:	89 3d 7f 45 20 00    	mov    %edi,0x20457f(%rip)        # 6054f8 <check_level>
  400f79:	8b 3d b1 41 20 00    	mov    0x2041b1(%rip),%edi        # 605130 <target_id>
  400f7f:	e8 f5 1d 00 00       	callq  402d79 <gencookie>
  400f84:	89 05 7a 45 20 00    	mov    %eax,0x20457a(%rip)        # 605504 <cookie>
  400f8a:	89 c7                	mov    %eax,%edi
  400f8c:	e8 e8 1d 00 00       	callq  402d79 <gencookie>
  400f91:	89 05 69 45 20 00    	mov    %eax,0x204569(%rip)        # 605500 <authkey>
  400f97:	8b 05 93 41 20 00    	mov    0x204193(%rip),%eax        # 605130 <target_id>
  400f9d:	8d 78 01             	lea    0x1(%rax),%edi
  400fa0:	e8 5b fc ff ff       	callq  400c00 <srandom@plt>
  400fa5:	e8 66 fd ff ff       	callq  400d10 <random@plt>
  400faa:	89 c7                	mov    %eax,%edi
  400fac:	e8 c3 02 00 00       	callq  401274 <scramble>
  400fb1:	89 c3                	mov    %eax,%ebx
  400fb3:	85 ed                	test   %ebp,%ebp
  400fb5:	75 3d                	jne    400ff4 <initialize_target+0x8c>
  400fb7:	b8 00 00 00 00       	mov    $0x0,%eax
  400fbc:	01 d8                	add    %ebx,%eax
  400fbe:	0f b7 c0             	movzwl %ax,%eax
  400fc1:	8d 04 c5 00 01 00 00 	lea    0x100(,%rax,8),%eax
  400fc8:	89 c0                	mov    %eax,%eax
  400fca:	48 89 05 af 44 20 00 	mov    %rax,0x2044af(%rip)        # 605480 <buf_offset>
  400fd1:	c6 05 50 51 20 00 72 	movb   $0x72,0x205150(%rip)        # 606128 <target_prefix>
  400fd8:	83 3d a9 44 20 00 00 	cmpl   $0x0,0x2044a9(%rip)        # 605488 <notify>
  400fdf:	74 09                	je     400fea <initialize_target+0x82>
  400fe1:	83 3d 20 45 20 00 00 	cmpl   $0x0,0x204520(%rip)        # 605508 <is_checker>
  400fe8:	74 22                	je     40100c <initialize_target+0xa4>
  400fea:	48 81 c4 08 21 00 00 	add    $0x2108,%rsp
  400ff1:	5b                   	pop    %rbx
  400ff2:	5d                   	pop    %rbp
  400ff3:	c3                   	retq   
  400ff4:	bf 00 00 00 00       	mov    $0x0,%edi
  400ff9:	e8 02 fd ff ff       	callq  400d00 <time@plt>
  400ffe:	89 c7                	mov    %eax,%edi
  401000:	e8 fb fb ff ff       	callq  400c00 <srandom@plt>
  401005:	e8 06 fd ff ff       	callq  400d10 <random@plt>
  40100a:	eb b0                	jmp    400fbc <initialize_target+0x54>
  40100c:	48 89 e7             	mov    %rsp,%rdi
  40100f:	be 00 01 00 00       	mov    $0x100,%esi
  401014:	e8 77 fd ff ff       	callq  400d90 <gethostname@plt>
  401019:	89 c3                	mov    %eax,%ebx
  40101b:	85 c0                	test   %eax,%eax
  40101d:	75 24                	jne    401043 <initialize_target+0xdb>
  40101f:	48 63 c3             	movslq %ebx,%rax
  401022:	48 8d 15 37 41 20 00 	lea    0x204137(%rip),%rdx        # 605160 <host_table>
  401029:	48 8b 3c c2          	mov    (%rdx,%rax,8),%rdi
  40102d:	48 85 ff             	test   %rdi,%rdi
  401030:	74 27                	je     401059 <initialize_target+0xf1>
  401032:	48 89 e6             	mov    %rsp,%rsi
  401035:	e8 a6 fb ff ff       	callq  400be0 <strcasecmp@plt>
  40103a:	85 c0                	test   %eax,%eax
  40103c:	74 1b                	je     401059 <initialize_target+0xf1>
  40103e:	83 c3 01             	add    $0x1,%ebx
  401041:	eb dc                	jmp    40101f <initialize_target+0xb7>
  401043:	48 8d 3d be 1e 00 00 	lea    0x1ebe(%rip),%rdi        # 402f08 <_IO_stdin_used+0xe8>
  40104a:	e8 e1 fb ff ff       	callq  400c30 <puts@plt>
  40104f:	bf 08 00 00 00       	mov    $0x8,%edi
  401054:	e8 57 fd ff ff       	callq  400db0 <exit@plt>
  401059:	48 8d bc 24 00 01 00 	lea    0x100(%rsp),%rdi
  401060:	00 
  401061:	e8 98 1a 00 00       	callq  402afe <init_driver>
  401066:	85 c0                	test   %eax,%eax
  401068:	79 80                	jns    400fea <initialize_target+0x82>
  40106a:	48 8d b4 24 00 01 00 	lea    0x100(%rsp),%rsi
  401071:	00 
  401072:	48 8d 3d c7 1e 00 00 	lea    0x1ec7(%rip),%rdi        # 402f40 <_IO_stdin_used+0x120>
  401079:	b8 00 00 00 00       	mov    $0x0,%eax
  40107e:	e8 dd fb ff ff       	callq  400c60 <printf@plt>
  401083:	bf 08 00 00 00       	mov    $0x8,%edi
  401088:	e8 23 fd ff ff       	callq  400db0 <exit@plt>

000000000040108d <main>:
  40108d:	41 56                	push   %r14
  40108f:	41 55                	push   %r13
  401091:	41 54                	push   %r12
  401093:	55                   	push   %rbp
  401094:	53                   	push   %rbx
  401095:	41 89 fc             	mov    %edi,%r12d
  401098:	48 89 f3             	mov    %rsi,%rbx
  40109b:	48 c7 c6 a4 1e 40 00 	mov    $0x401ea4,%rsi
  4010a2:	bf 0b 00 00 00       	mov    $0xb,%edi
  4010a7:	e8 04 fc ff ff       	callq  400cb0 <signal@plt>
  4010ac:	48 c7 c6 50 1e 40 00 	mov    $0x401e50,%rsi
  4010b3:	bf 07 00 00 00       	mov    $0x7,%edi
  4010b8:	e8 f3 fb ff ff       	callq  400cb0 <signal@plt>
  4010bd:	48 c7 c6 f8 1e 40 00 	mov    $0x401ef8,%rsi
  4010c4:	bf 04 00 00 00       	mov    $0x4,%edi
  4010c9:	e8 e2 fb ff ff       	callq  400cb0 <signal@plt>
  4010ce:	83 3d 33 44 20 00 00 	cmpl   $0x0,0x204433(%rip)        # 605508 <is_checker>
  4010d5:	75 58                	jne    40112f <main+0xa2>
  4010d7:	48 8d 2d 27 1f 00 00 	lea    0x1f27(%rip),%rbp        # 403005 <_IO_stdin_used+0x1e5>
  4010de:	48 8b 05 bb 43 20 00 	mov    0x2043bb(%rip),%rax        # 6054a0 <stdin@@GLIBC_2.2.5>
  4010e5:	48 89 05 04 44 20 00 	mov    %rax,0x204404(%rip)        # 6054f0 <infile>
  4010ec:	41 bd 00 00 00 00    	mov    $0x0,%r13d
  4010f2:	41 be 00 00 00 00    	mov    $0x0,%r14d
  4010f8:	48 89 ea             	mov    %rbp,%rdx
  4010fb:	48 89 de             	mov    %rbx,%rsi
  4010fe:	44 89 e7             	mov    %r12d,%edi
  401101:	e8 6a fc ff ff       	callq  400d70 <getopt@plt>
  401106:	3c ff                	cmp    $0xff,%al
  401108:	0f 84 f8 00 00 00    	je     401206 <main+0x179>
  40110e:	0f be f0             	movsbl %al,%esi
  401111:	83 e8 61             	sub    $0x61,%eax
  401114:	3c 10                	cmp    $0x10,%al
  401116:	0f 87 d1 00 00 00    	ja     4011ed <main+0x160>
  40111c:	0f b6 c0             	movzbl %al,%eax
  40111f:	48 8d 15 2a 1f 00 00 	lea    0x1f2a(%rip),%rdx        # 403050 <_IO_stdin_used+0x230>
  401126:	48 63 04 82          	movslq (%rdx,%rax,4),%rax
  40112a:	48 01 d0             	add    %rdx,%rax
  40112d:	ff e0                	jmpq   *%rax
  40112f:	48 c7 c6 4c 1f 40 00 	mov    $0x401f4c,%rsi
  401136:	bf 0e 00 00 00       	mov    $0xe,%edi
  40113b:	e8 70 fb ff ff       	callq  400cb0 <signal@plt>
  401140:	bf 05 00 00 00       	mov    $0x5,%edi
  401145:	e8 36 fb ff ff       	callq  400c80 <alarm@plt>
  40114a:	48 8d 2d b9 1e 00 00 	lea    0x1eb9(%rip),%rbp        # 40300a <_IO_stdin_used+0x1ea>
  401151:	eb 8b                	jmp    4010de <main+0x51>
  401153:	48 8b 3b             	mov    (%rbx),%rdi
  401156:	e8 7b fd ff ff       	callq  400ed6 <usage>
  40115b:	48 8d 35 33 21 00 00 	lea    0x2133(%rip),%rsi        # 403295 <_IO_stdin_used+0x475>
  401162:	48 8b 3d 3f 43 20 00 	mov    0x20433f(%rip),%rdi        # 6054a8 <optarg@@GLIBC_2.2.5>
  401169:	e8 f2 fb ff ff       	callq  400d60 <fopen@plt>
  40116e:	48 89 05 7b 43 20 00 	mov    %rax,0x20437b(%rip)        # 6054f0 <infile>
  401175:	48 85 c0             	test   %rax,%rax
  401178:	0f 85 7a ff ff ff    	jne    4010f8 <main+0x6b>
  40117e:	48 8b 15 23 43 20 00 	mov    0x204323(%rip),%rdx        # 6054a8 <optarg@@GLIBC_2.2.5>
  401185:	48 8d 35 86 1e 00 00 	lea    0x1e86(%rip),%rsi        # 403012 <_IO_stdin_used+0x1f2>
  40118c:	48 8b 3d 2d 43 20 00 	mov    0x20432d(%rip),%rdi        # 6054c0 <stderr@@GLIBC_2.2.5>
  401193:	e8 38 fb ff ff       	callq  400cd0 <fprintf@plt>
  401198:	b8 01 00 00 00       	mov    $0x1,%eax
  40119d:	e9 c9 00 00 00       	jmpq   40126b <main+0x1de>
  4011a2:	ba 10 00 00 00       	mov    $0x10,%edx
  4011a7:	be 00 00 00 00       	mov    $0x0,%esi
  4011ac:	48 8b 3d f5 42 20 00 	mov    0x2042f5(%rip),%rdi        # 6054a8 <optarg@@GLIBC_2.2.5>
  4011b3:	e8 c8 fb ff ff       	callq  400d80 <strtoul@plt>
  4011b8:	41 89 c6             	mov    %eax,%r14d
  4011bb:	e9 38 ff ff ff       	jmpq   4010f8 <main+0x6b>
  4011c0:	ba 0a 00 00 00       	mov    $0xa,%edx
  4011c5:	be 00 00 00 00       	mov    $0x0,%esi
  4011ca:	48 8b 3d d7 42 20 00 	mov    0x2042d7(%rip),%rdi        # 6054a8 <optarg@@GLIBC_2.2.5>
  4011d1:	e8 0a fb ff ff       	callq  400ce0 <strtol@plt>
  4011d6:	41 89 c5             	mov    %eax,%r13d
  4011d9:	e9 1a ff ff ff       	jmpq   4010f8 <main+0x6b>
  4011de:	c7 05 a0 42 20 00 00 	movl   $0x0,0x2042a0(%rip)        # 605488 <notify>
  4011e5:	00 00 00 
  4011e8:	e9 0b ff ff ff       	jmpq   4010f8 <main+0x6b>
  4011ed:	48 8d 3d 3b 1e 00 00 	lea    0x1e3b(%rip),%rdi        # 40302f <_IO_stdin_used+0x20f>
  4011f4:	b8 00 00 00 00       	mov    $0x0,%eax
  4011f9:	e8 62 fa ff ff       	callq  400c60 <printf@plt>
  4011fe:	48 8b 3b             	mov    (%rbx),%rdi
  401201:	e8 d0 fc ff ff       	callq  400ed6 <usage>
  401206:	be 01 00 00 00       	mov    $0x1,%esi
  40120b:	44 89 ef             	mov    %r13d,%edi
  40120e:	e8 55 fd ff ff       	callq  400f68 <initialize_target>
  401213:	83 3d ee 42 20 00 00 	cmpl   $0x0,0x2042ee(%rip)        # 605508 <is_checker>
  40121a:	74 27                	je     401243 <main+0x1b6>
  40121c:	44 3b 35 dd 42 20 00 	cmp    0x2042dd(%rip),%r14d        # 605500 <authkey>
  401223:	74 1e                	je     401243 <main+0x1b6>
  401225:	44 89 f6             	mov    %r14d,%esi
  401228:	48 8d 3d 39 1d 00 00 	lea    0x1d39(%rip),%rdi        # 402f68 <_IO_stdin_used+0x148>
  40122f:	b8 00 00 00 00       	mov    $0x0,%eax
  401234:	e8 27 fa ff ff       	callq  400c60 <printf@plt>
  401239:	b8 00 00 00 00       	mov    $0x0,%eax
  40123e:	e8 dd 08 00 00       	callq  401b20 <check_fail>
  401243:	8b 35 bb 42 20 00    	mov    0x2042bb(%rip),%esi        # 605504 <cookie>
  401249:	48 8d 3d f2 1d 00 00 	lea    0x1df2(%rip),%rdi        # 403042 <_IO_stdin_used+0x222>
  401250:	b8 00 00 00 00       	mov    $0x0,%eax
  401255:	e8 06 fa ff ff       	callq  400c60 <printf@plt>
  40125a:	48 8b 3d 1f 42 20 00 	mov    0x20421f(%rip),%rdi        # 605480 <buf_offset>
  401261:	e8 38 0d 00 00       	callq  401f9e <launch>
  401266:	b8 00 00 00 00       	mov    $0x0,%eax
  40126b:	5b                   	pop    %rbx
  40126c:	5d                   	pop    %rbp
  40126d:	41 5c                	pop    %r12
  40126f:	41 5d                	pop    %r13
  401271:	41 5e                	pop    %r14
  401273:	c3                   	retq   

0000000000401274 <scramble>:
  401274:	b8 00 00 00 00       	mov    $0x0,%eax
  401279:	eb 11                	jmp    40128c <scramble+0x18>
  40127b:	69 d0 fd ed 00 00    	imul   $0xedfd,%eax,%edx
  401281:	01 fa                	add    %edi,%edx
  401283:	89 c1                	mov    %eax,%ecx
  401285:	89 54 8c d0          	mov    %edx,-0x30(%rsp,%rcx,4)
  401289:	83 c0 01             	add    $0x1,%eax
  40128c:	83 f8 09             	cmp    $0x9,%eax
  40128f:	76 ea                	jbe    40127b <scramble+0x7>
  401291:	8b 44 24 d8          	mov    -0x28(%rsp),%eax
  401295:	69 c0 89 aa 00 00    	imul   $0xaa89,%eax,%eax
  40129b:	89 44 24 d8          	mov    %eax,-0x28(%rsp)
  40129f:	8b 44 24 dc          	mov    -0x24(%rsp),%eax
  4012a3:	69 c0 c3 bf 00 00    	imul   $0xbfc3,%eax,%eax
  4012a9:	89 44 24 dc          	mov    %eax,-0x24(%rsp)
  4012ad:	8b 44 24 dc          	mov    -0x24(%rsp),%eax
  4012b1:	69 c0 77 1b 00 00    	imul   $0x1b77,%eax,%eax
  4012b7:	89 44 24 dc          	mov    %eax,-0x24(%rsp)
  4012bb:	8b 44 24 f0          	mov    -0x10(%rsp),%eax
  4012bf:	69 c0 af b2 00 00    	imul   $0xb2af,%eax,%eax
  4012c5:	89 44 24 f0          	mov    %eax,-0x10(%rsp)
  4012c9:	8b 44 24 e4          	mov    -0x1c(%rsp),%eax
  4012cd:	69 c0 8d 31 00 00    	imul   $0x318d,%eax,%eax
  4012d3:	89 44 24 e4          	mov    %eax,-0x1c(%rsp)
  4012d7:	8b 44 24 d4          	mov    -0x2c(%rsp),%eax
  4012db:	69 c0 4f 12 00 00    	imul   $0x124f,%eax,%eax
  4012e1:	89 44 24 d4          	mov    %eax,-0x2c(%rsp)
  4012e5:	8b 44 24 d8          	mov    -0x28(%rsp),%eax
  4012e9:	69 c0 24 4e 00 00    	imul   $0x4e24,%eax,%eax
  4012ef:	89 44 24 d8          	mov    %eax,-0x28(%rsp)
  4012f3:	8b 44 24 e0          	mov    -0x20(%rsp),%eax
  4012f7:	69 c0 8d 3b 00 00    	imul   $0x3b8d,%eax,%eax
  4012fd:	89 44 24 e0          	mov    %eax,-0x20(%rsp)
  401301:	8b 44 24 dc          	mov    -0x24(%rsp),%eax
  401305:	69 c0 fd 53 00 00    	imul   $0x53fd,%eax,%eax
  40130b:	89 44 24 dc          	mov    %eax,-0x24(%rsp)
  40130f:	8b 44 24 e0          	mov    -0x20(%rsp),%eax
  401313:	69 c0 2f a9 00 00    	imul   $0xa92f,%eax,%eax
  401319:	89 44 24 e0          	mov    %eax,-0x20(%rsp)
  40131d:	8b 44 24 e0          	mov    -0x20(%rsp),%eax
  401321:	69 c0 a5 1c 00 00    	imul   $0x1ca5,%eax,%eax
  401327:	89 44 24 e0          	mov    %eax,-0x20(%rsp)
  40132b:	8b 44 24 e4          	mov    -0x1c(%rsp),%eax
  40132f:	69 c0 7e 8a 00 00    	imul   $0x8a7e,%eax,%eax
  401335:	89 44 24 e4          	mov    %eax,-0x1c(%rsp)
  401339:	8b 44 24 d8          	mov    -0x28(%rsp),%eax
  40133d:	69 c0 1c 46 00 00    	imul   $0x461c,%eax,%eax
  401343:	89 44 24 d8          	mov    %eax,-0x28(%rsp)
  401347:	8b 44 24 d0          	mov    -0x30(%rsp),%eax
  40134b:	69 c0 93 93 00 00    	imul   $0x9393,%eax,%eax
  401351:	89 44 24 d0          	mov    %eax,-0x30(%rsp)
  401355:	8b 44 24 f0          	mov    -0x10(%rsp),%eax
  401359:	69 c0 64 16 00 00    	imul   $0x1664,%eax,%eax
  40135f:	89 44 24 f0          	mov    %eax,-0x10(%rsp)
  401363:	8b 44 24 ec          	mov    -0x14(%rsp),%eax
  401367:	69 c0 01 a5 00 00    	imul   $0xa501,%eax,%eax
  40136d:	89 44 24 ec          	mov    %eax,-0x14(%rsp)
  401371:	8b 44 24 e0          	mov    -0x20(%rsp),%eax
  401375:	69 c0 5c 6e 00 00    	imul   $0x6e5c,%eax,%eax
  40137b:	89 44 24 e0          	mov    %eax,-0x20(%rsp)
  40137f:	8b 44 24 f0          	mov    -0x10(%rsp),%eax
  401383:	69 c0 8d f9 00 00    	imul   $0xf98d,%eax,%eax
  401389:	89 44 24 f0          	mov    %eax,-0x10(%rsp)
  40138d:	8b 44 24 e0          	mov    -0x20(%rsp),%eax
  401391:	69 c0 a3 0d 00 00    	imul   $0xda3,%eax,%eax
  401397:	89 44 24 e0          	mov    %eax,-0x20(%rsp)
  40139b:	8b 44 24 f0          	mov    -0x10(%rsp),%eax
  40139f:	69 c0 44 28 00 00    	imul   $0x2844,%eax,%eax
  4013a5:	89 44 24 f0          	mov    %eax,-0x10(%rsp)
  4013a9:	8b 44 24 f4          	mov    -0xc(%rsp),%eax
  4013ad:	69 c0 25 cb 00 00    	imul   $0xcb25,%eax,%eax
  4013b3:	89 44 24 f4          	mov    %eax,-0xc(%rsp)
  4013b7:	8b 44 24 f4          	mov    -0xc(%rsp),%eax
  4013bb:	69 c0 a0 47 00 00    	imul   $0x47a0,%eax,%eax
  4013c1:	89 44 24 f4          	mov    %eax,-0xc(%rsp)
  4013c5:	8b 44 24 d4          	mov    -0x2c(%rsp),%eax
  4013c9:	69 c0 15 42 00 00    	imul   $0x4215,%eax,%eax
  4013cf:	89 44 24 d4          	mov    %eax,-0x2c(%rsp)
  4013d3:	8b 44 24 d8          	mov    -0x28(%rsp),%eax
  4013d7:	69 c0 72 aa 00 00    	imul   $0xaa72,%eax,%eax
  4013dd:	89 44 24 d8          	mov    %eax,-0x28(%rsp)
  4013e1:	8b 44 24 dc          	mov    -0x24(%rsp),%eax
  4013e5:	69 c0 6a d4 00 00    	imul   $0xd46a,%eax,%eax
  4013eb:	89 44 24 dc          	mov    %eax,-0x24(%rsp)
  4013ef:	8b 44 24 ec          	mov    -0x14(%rsp),%eax
  4013f3:	69 c0 55 3d 00 00    	imul   $0x3d55,%eax,%eax
  4013f9:	89 44 24 ec          	mov    %eax,-0x14(%rsp)
  4013fd:	8b 44 24 e4          	mov    -0x1c(%rsp),%eax
  401401:	69 c0 87 43 00 00    	imul   $0x4387,%eax,%eax
  401407:	89 44 24 e4          	mov    %eax,-0x1c(%rsp)
  40140b:	8b 44 24 ec          	mov    -0x14(%rsp),%eax
  40140f:	69 c0 0c 74 00 00    	imul   $0x740c,%eax,%eax
  401415:	89 44 24 ec          	mov    %eax,-0x14(%rsp)
  401419:	8b 44 24 e8          	mov    -0x18(%rsp),%eax
  40141d:	69 c0 9b 73 00 00    	imul   $0x739b,%eax,%eax
  401423:	89 44 24 e8          	mov    %eax,-0x18(%rsp)
  401427:	8b 44 24 ec          	mov    -0x14(%rsp),%eax
  40142b:	69 c0 a7 40 00 00    	imul   $0x40a7,%eax,%eax
  401431:	89 44 24 ec          	mov    %eax,-0x14(%rsp)
  401435:	8b 44 24 e4          	mov    -0x1c(%rsp),%eax
  401439:	69 c0 b0 0f 00 00    	imul   $0xfb0,%eax,%eax
  40143f:	89 44 24 e4          	mov    %eax,-0x1c(%rsp)
  401443:	8b 44 24 e8          	mov    -0x18(%rsp),%eax
  401447:	69 c0 ed 4a 00 00    	imul   $0x4aed,%eax,%eax
  40144d:	89 44 24 e8          	mov    %eax,-0x18(%rsp)
  401451:	8b 44 24 e8          	mov    -0x18(%rsp),%eax
  401455:	69 c0 6d 4a 00 00    	imul   $0x4a6d,%eax,%eax
  40145b:	89 44 24 e8          	mov    %eax,-0x18(%rsp)
  40145f:	8b 44 24 d4          	mov    -0x2c(%rsp),%eax
  401463:	69 c0 e0 07 00 00    	imul   $0x7e0,%eax,%eax
  401469:	89 44 24 d4          	mov    %eax,-0x2c(%rsp)
  40146d:	8b 44 24 ec          	mov    -0x14(%rsp),%eax
  401471:	69 c0 b6 f0 00 00    	imul   $0xf0b6,%eax,%eax
  401477:	89 44 24 ec          	mov    %eax,-0x14(%rsp)
  40147b:	8b 44 24 e0          	mov    -0x20(%rsp),%eax
  40147f:	69 c0 41 97 00 00    	imul   $0x9741,%eax,%eax
  401485:	89 44 24 e0          	mov    %eax,-0x20(%rsp)
  401489:	8b 44 24 dc          	mov    -0x24(%rsp),%eax
  40148d:	69 c0 b8 6a 00 00    	imul   $0x6ab8,%eax,%eax
  401493:	89 44 24 dc          	mov    %eax,-0x24(%rsp)
  401497:	8b 44 24 f0          	mov    -0x10(%rsp),%eax
  40149b:	69 c0 25 d5 00 00    	imul   $0xd525,%eax,%eax
  4014a1:	89 44 24 f0          	mov    %eax,-0x10(%rsp)
  4014a5:	8b 44 24 d4          	mov    -0x2c(%rsp),%eax
  4014a9:	69 c0 0e 62 00 00    	imul   $0x620e,%eax,%eax
  4014af:	89 44 24 d4          	mov    %eax,-0x2c(%rsp)
  4014b3:	8b 44 24 dc          	mov    -0x24(%rsp),%eax
  4014b7:	69 c0 e0 42 00 00    	imul   $0x42e0,%eax,%eax
  4014bd:	89 44 24 dc          	mov    %eax,-0x24(%rsp)
  4014c1:	8b 44 24 d4          	mov    -0x2c(%rsp),%eax
  4014c5:	69 c0 38 d3 00 00    	imul   $0xd338,%eax,%eax
  4014cb:	89 44 24 d4          	mov    %eax,-0x2c(%rsp)
  4014cf:	8b 44 24 e8          	mov    -0x18(%rsp),%eax
  4014d3:	69 c0 88 27 00 00    	imul   $0x2788,%eax,%eax
  4014d9:	89 44 24 e8          	mov    %eax,-0x18(%rsp)
  4014dd:	8b 44 24 e4          	mov    -0x1c(%rsp),%eax
  4014e1:	69 c0 09 48 00 00    	imul   $0x4809,%eax,%eax
  4014e7:	89 44 24 e4          	mov    %eax,-0x1c(%rsp)
  4014eb:	8b 44 24 e8          	mov    -0x18(%rsp),%eax
  4014ef:	69 c0 63 a0 00 00    	imul   $0xa063,%eax,%eax
  4014f5:	89 44 24 e8          	mov    %eax,-0x18(%rsp)
  4014f9:	8b 44 24 dc          	mov    -0x24(%rsp),%eax
  4014fd:	69 c0 35 a3 00 00    	imul   $0xa335,%eax,%eax
  401503:	89 44 24 dc          	mov    %eax,-0x24(%rsp)
  401507:	8b 44 24 ec          	mov    -0x14(%rsp),%eax
  40150b:	69 c0 a4 45 00 00    	imul   $0x45a4,%eax,%eax
  401511:	89 44 24 ec          	mov    %eax,-0x14(%rsp)
  401515:	8b 44 24 dc          	mov    -0x24(%rsp),%eax
  401519:	69 c0 b4 c6 00 00    	imul   $0xc6b4,%eax,%eax
  40151f:	89 44 24 dc          	mov    %eax,-0x24(%rsp)
  401523:	8b 44 24 f4          	mov    -0xc(%rsp),%eax
  401527:	69 c0 f1 30 00 00    	imul   $0x30f1,%eax,%eax
  40152d:	89 44 24 f4          	mov    %eax,-0xc(%rsp)
  401531:	8b 44 24 d8          	mov    -0x28(%rsp),%eax
  401535:	69 c0 0b d5 00 00    	imul   $0xd50b,%eax,%eax
  40153b:	89 44 24 d8          	mov    %eax,-0x28(%rsp)
  40153f:	8b 44 24 dc          	mov    -0x24(%rsp),%eax
  401543:	69 c0 32 69 00 00    	imul   $0x6932,%eax,%eax
  401549:	89 44 24 dc          	mov    %eax,-0x24(%rsp)
  40154d:	8b 44 24 e0          	mov    -0x20(%rsp),%eax
  401551:	69 c0 f7 68 00 00    	imul   $0x68f7,%eax,%eax
  401557:	89 44 24 e0          	mov    %eax,-0x20(%rsp)
  40155b:	8b 44 24 e4          	mov    -0x1c(%rsp),%eax
  40155f:	69 c0 9d 81 00 00    	imul   $0x819d,%eax,%eax
  401565:	89 44 24 e4          	mov    %eax,-0x1c(%rsp)
  401569:	8b 44 24 dc          	mov    -0x24(%rsp),%eax
  40156d:	69 c0 55 df 00 00    	imul   $0xdf55,%eax,%eax
  401573:	89 44 24 dc          	mov    %eax,-0x24(%rsp)
  401577:	8b 44 24 e8          	mov    -0x18(%rsp),%eax
  40157b:	69 c0 7d 80 00 00    	imul   $0x807d,%eax,%eax
  401581:	89 44 24 e8          	mov    %eax,-0x18(%rsp)
  401585:	8b 44 24 f0          	mov    -0x10(%rsp),%eax
  401589:	69 c0 5a d6 00 00    	imul   $0xd65a,%eax,%eax
  40158f:	89 44 24 f0          	mov    %eax,-0x10(%rsp)
  401593:	8b 44 24 dc          	mov    -0x24(%rsp),%eax
  401597:	69 c0 dd 77 00 00    	imul   $0x77dd,%eax,%eax
  40159d:	89 44 24 dc          	mov    %eax,-0x24(%rsp)
  4015a1:	8b 44 24 d4          	mov    -0x2c(%rsp),%eax
  4015a5:	69 c0 93 43 00 00    	imul   $0x4393,%eax,%eax
  4015ab:	89 44 24 d4          	mov    %eax,-0x2c(%rsp)
  4015af:	8b 44 24 f0          	mov    -0x10(%rsp),%eax
  4015b3:	69 c0 53 c0 00 00    	imul   $0xc053,%eax,%eax
  4015b9:	89 44 24 f0          	mov    %eax,-0x10(%rsp)
  4015bd:	8b 44 24 e0          	mov    -0x20(%rsp),%eax
  4015c1:	69 c0 fa 3a 00 00    	imul   $0x3afa,%eax,%eax
  4015c7:	89 44 24 e0          	mov    %eax,-0x20(%rsp)
  4015cb:	8b 44 24 f4          	mov    -0xc(%rsp),%eax
  4015cf:	69 c0 41 47 00 00    	imul   $0x4741,%eax,%eax
  4015d5:	89 44 24 f4          	mov    %eax,-0xc(%rsp)
  4015d9:	8b 44 24 dc          	mov    -0x24(%rsp),%eax
  4015dd:	69 c0 c1 41 00 00    	imul   $0x41c1,%eax,%eax
  4015e3:	89 44 24 dc          	mov    %eax,-0x24(%rsp)
  4015e7:	8b 44 24 ec          	mov    -0x14(%rsp),%eax
  4015eb:	69 c0 14 91 00 00    	imul   $0x9114,%eax,%eax
  4015f1:	89 44 24 ec          	mov    %eax,-0x14(%rsp)
  4015f5:	8b 44 24 d8          	mov    -0x28(%rsp),%eax
  4015f9:	69 c0 76 1d 00 00    	imul   $0x1d76,%eax,%eax
  4015ff:	89 44 24 d8          	mov    %eax,-0x28(%rsp)
  401603:	8b 44 24 f4          	mov    -0xc(%rsp),%eax
  401607:	69 c0 97 19 00 00    	imul   $0x1997,%eax,%eax
  40160d:	89 44 24 f4          	mov    %eax,-0xc(%rsp)
  401611:	8b 44 24 d4          	mov    -0x2c(%rsp),%eax
  401615:	69 c0 d8 fa 00 00    	imul   $0xfad8,%eax,%eax
  40161b:	89 44 24 d4          	mov    %eax,-0x2c(%rsp)
  40161f:	8b 44 24 dc          	mov    -0x24(%rsp),%eax
  401623:	69 c0 42 b8 00 00    	imul   $0xb842,%eax,%eax
  401629:	89 44 24 dc          	mov    %eax,-0x24(%rsp)
  40162d:	8b 44 24 d8          	mov    -0x28(%rsp),%eax
  401631:	69 c0 3d 83 00 00    	imul   $0x833d,%eax,%eax
  401637:	89 44 24 d8          	mov    %eax,-0x28(%rsp)
  40163b:	8b 44 24 f4          	mov    -0xc(%rsp),%eax
  40163f:	69 c0 7e 37 00 00    	imul   $0x377e,%eax,%eax
  401645:	89 44 24 f4          	mov    %eax,-0xc(%rsp)
  401649:	8b 44 24 e8          	mov    -0x18(%rsp),%eax
  40164d:	69 c0 a3 90 00 00    	imul   $0x90a3,%eax,%eax
  401653:	89 44 24 e8          	mov    %eax,-0x18(%rsp)
  401657:	8b 44 24 e4          	mov    -0x1c(%rsp),%eax
  40165b:	69 c0 f7 a3 00 00    	imul   $0xa3f7,%eax,%eax
  401661:	89 44 24 e4          	mov    %eax,-0x1c(%rsp)
  401665:	8b 44 24 f0          	mov    -0x10(%rsp),%eax
  401669:	69 c0 5a 7b 00 00    	imul   $0x7b5a,%eax,%eax
  40166f:	89 44 24 f0          	mov    %eax,-0x10(%rsp)
  401673:	8b 44 24 dc          	mov    -0x24(%rsp),%eax
  401677:	69 c0 90 10 00 00    	imul   $0x1090,%eax,%eax
  40167d:	89 44 24 dc          	mov    %eax,-0x24(%rsp)
  401681:	8b 44 24 f4          	mov    -0xc(%rsp),%eax
  401685:	69 c0 39 bb 00 00    	imul   $0xbb39,%eax,%eax
  40168b:	89 44 24 f4          	mov    %eax,-0xc(%rsp)
  40168f:	8b 44 24 f0          	mov    -0x10(%rsp),%eax
  401693:	69 c0 8a 4a 00 00    	imul   $0x4a8a,%eax,%eax
  401699:	89 44 24 f0          	mov    %eax,-0x10(%rsp)
  40169d:	8b 44 24 d4          	mov    -0x2c(%rsp),%eax
  4016a1:	69 c0 9a 31 00 00    	imul   $0x319a,%eax,%eax
  4016a7:	89 44 24 d4          	mov    %eax,-0x2c(%rsp)
  4016ab:	8b 44 24 e4          	mov    -0x1c(%rsp),%eax
  4016af:	69 c0 63 d4 00 00    	imul   $0xd463,%eax,%eax
  4016b5:	89 44 24 e4          	mov    %eax,-0x1c(%rsp)
  4016b9:	8b 44 24 e8          	mov    -0x18(%rsp),%eax
  4016bd:	69 c0 b0 1e 00 00    	imul   $0x1eb0,%eax,%eax
  4016c3:	89 44 24 e8          	mov    %eax,-0x18(%rsp)
  4016c7:	8b 44 24 e0          	mov    -0x20(%rsp),%eax
  4016cb:	69 c0 d1 7b 00 00    	imul   $0x7bd1,%eax,%eax
  4016d1:	89 44 24 e0          	mov    %eax,-0x20(%rsp)
  4016d5:	8b 44 24 e0          	mov    -0x20(%rsp),%eax
  4016d9:	69 c0 7e 27 00 00    	imul   $0x277e,%eax,%eax
  4016df:	89 44 24 e0          	mov    %eax,-0x20(%rsp)
  4016e3:	8b 44 24 e0          	mov    -0x20(%rsp),%eax
  4016e7:	69 c0 a7 2e 00 00    	imul   $0x2ea7,%eax,%eax
  4016ed:	89 44 24 e0          	mov    %eax,-0x20(%rsp)
  4016f1:	8b 44 24 f4          	mov    -0xc(%rsp),%eax
  4016f5:	69 c0 31 18 00 00    	imul   $0x1831,%eax,%eax
  4016fb:	89 44 24 f4          	mov    %eax,-0xc(%rsp)
  4016ff:	8b 44 24 e4          	mov    -0x1c(%rsp),%eax
  401703:	69 c0 25 86 00 00    	imul   $0x8625,%eax,%eax
  401709:	89 44 24 e4          	mov    %eax,-0x1c(%rsp)
  40170d:	8b 44 24 ec          	mov    -0x14(%rsp),%eax
  401711:	69 c0 c9 20 00 00    	imul   $0x20c9,%eax,%eax
  401717:	89 44 24 ec          	mov    %eax,-0x14(%rsp)
  40171b:	8b 44 24 d0          	mov    -0x30(%rsp),%eax
  40171f:	69 c0 02 fe 00 00    	imul   $0xfe02,%eax,%eax
  401725:	89 44 24 d0          	mov    %eax,-0x30(%rsp)
  401729:	8b 44 24 dc          	mov    -0x24(%rsp),%eax
  40172d:	69 c0 9f 75 00 00    	imul   $0x759f,%eax,%eax
  401733:	89 44 24 dc          	mov    %eax,-0x24(%rsp)
  401737:	8b 44 24 f4          	mov    -0xc(%rsp),%eax
  40173b:	69 c0 6a 18 00 00    	imul   $0x186a,%eax,%eax
  401741:	89 44 24 f4          	mov    %eax,-0xc(%rsp)
  401745:	8b 44 24 f0          	mov    -0x10(%rsp),%eax
  401749:	69 c0 cd bd 00 00    	imul   $0xbdcd,%eax,%eax
  40174f:	89 44 24 f0          	mov    %eax,-0x10(%rsp)
  401753:	8b 44 24 e0          	mov    -0x20(%rsp),%eax
  401757:	69 c0 e7 af 00 00    	imul   $0xafe7,%eax,%eax
  40175d:	89 44 24 e0          	mov    %eax,-0x20(%rsp)
  401761:	8b 44 24 f4          	mov    -0xc(%rsp),%eax
  401765:	69 c0 de f9 00 00    	imul   $0xf9de,%eax,%eax
  40176b:	89 44 24 f4          	mov    %eax,-0xc(%rsp)
  40176f:	8b 44 24 e8          	mov    -0x18(%rsp),%eax
  401773:	69 c0 3a 6f 00 00    	imul   $0x6f3a,%eax,%eax
  401779:	89 44 24 e8          	mov    %eax,-0x18(%rsp)
  40177d:	8b 44 24 d8          	mov    -0x28(%rsp),%eax
  401781:	69 c0 3c 8c 00 00    	imul   $0x8c3c,%eax,%eax
  401787:	89 44 24 d8          	mov    %eax,-0x28(%rsp)
  40178b:	8b 44 24 f0          	mov    -0x10(%rsp),%eax
  40178f:	69 c0 d3 9e 00 00    	imul   $0x9ed3,%eax,%eax
  401795:	89 44 24 f0          	mov    %eax,-0x10(%rsp)
  401799:	8b 44 24 e8          	mov    -0x18(%rsp),%eax
  40179d:	69 c0 16 a9 00 00    	imul   $0xa916,%eax,%eax
  4017a3:	89 44 24 e8          	mov    %eax,-0x18(%rsp)
  4017a7:	8b 44 24 d0          	mov    -0x30(%rsp),%eax
  4017ab:	69 c0 12 e7 00 00    	imul   $0xe712,%eax,%eax
  4017b1:	89 44 24 d0          	mov    %eax,-0x30(%rsp)
  4017b5:	8b 44 24 f4          	mov    -0xc(%rsp),%eax
  4017b9:	69 c0 0c b0 00 00    	imul   $0xb00c,%eax,%eax
  4017bf:	89 44 24 f4          	mov    %eax,-0xc(%rsp)
  4017c3:	ba 00 00 00 00       	mov    $0x0,%edx
  4017c8:	b8 00 00 00 00       	mov    $0x0,%eax
  4017cd:	eb 0b                	jmp    4017da <scramble+0x566>
  4017cf:	89 d1                	mov    %edx,%ecx
  4017d1:	8b 4c 8c d0          	mov    -0x30(%rsp,%rcx,4),%ecx
  4017d5:	01 c8                	add    %ecx,%eax
  4017d7:	83 c2 01             	add    $0x1,%edx
  4017da:	83 fa 09             	cmp    $0x9,%edx
  4017dd:	76 f0                	jbe    4017cf <scramble+0x55b>
  4017df:	f3 c3                	repz retq 

00000000004017e1 <getbuf>:
  4017e1:	48 83 ec 18          	sub    $0x18,%rsp
  4017e5:	48 89 e7             	mov    %rsp,%rdi
  4017e8:	e8 66 03 00 00       	callq  401b53 <Gets>
  4017ed:	b8 01 00 00 00       	mov    $0x1,%eax
  4017f2:	48 83 c4 18          	add    $0x18,%rsp
  4017f6:	c3                   	retq   

00000000004017f7 <touch1>:
  4017f7:	48 83 ec 08          	sub    $0x8,%rsp
  4017fb:	c7 05 f7 3c 20 00 01 	movl   $0x1,0x203cf7(%rip)        # 6054fc <vlevel>
  401802:	00 00 00 
  401805:	48 8d 3d df 18 00 00 	lea    0x18df(%rip),%rdi        # 4030eb <_IO_stdin_used+0x2cb>
  40180c:	e8 1f f4 ff ff       	callq  400c30 <puts@plt>
  401811:	bf 01 00 00 00       	mov    $0x1,%edi
  401816:	e8 4f 05 00 00       	callq  401d6a <validate>
  40181b:	bf 00 00 00 00       	mov    $0x0,%edi
  401820:	e8 8b f5 ff ff       	callq  400db0 <exit@plt>

0000000000401825 <touch2>:
  401825:	48 83 ec 08          	sub    $0x8,%rsp
  401829:	89 fe                	mov    %edi,%esi
  40182b:	c7 05 c7 3c 20 00 02 	movl   $0x2,0x203cc7(%rip)        # 6054fc <vlevel>
  401832:	00 00 00 
  401835:	39 3d c9 3c 20 00    	cmp    %edi,0x203cc9(%rip)        # 605504 <cookie>
  40183b:	74 25                	je     401862 <touch2+0x3d>
  40183d:	48 8d 3d f4 18 00 00 	lea    0x18f4(%rip),%rdi        # 403138 <_IO_stdin_used+0x318>
  401844:	b8 00 00 00 00       	mov    $0x0,%eax
  401849:	e8 12 f4 ff ff       	callq  400c60 <printf@plt>
  40184e:	bf 02 00 00 00       	mov    $0x2,%edi
  401853:	e8 d0 05 00 00       	callq  401e28 <fail>
  401858:	bf 00 00 00 00       	mov    $0x0,%edi
  40185d:	e8 4e f5 ff ff       	callq  400db0 <exit@plt>
  401862:	48 8d 3d a7 18 00 00 	lea    0x18a7(%rip),%rdi        # 403110 <_IO_stdin_used+0x2f0>
  401869:	b8 00 00 00 00       	mov    $0x0,%eax
  40186e:	e8 ed f3 ff ff       	callq  400c60 <printf@plt>
  401873:	bf 02 00 00 00       	mov    $0x2,%edi
  401878:	e8 ed 04 00 00       	callq  401d6a <validate>
  40187d:	eb d9                	jmp    401858 <touch2+0x33>

000000000040187f <hexmatch>:
  40187f:	41 54                	push   %r12
  401881:	55                   	push   %rbp
  401882:	53                   	push   %rbx
  401883:	48 83 ec 70          	sub    $0x70,%rsp
  401887:	89 fd                	mov    %edi,%ebp
  401889:	48 89 f3             	mov    %rsi,%rbx
  40188c:	e8 7f f4 ff ff       	callq  400d10 <random@plt>
  401891:	48 89 c1             	mov    %rax,%rcx
  401894:	48 ba 0b d7 a3 70 3d 	movabs $0xa3d70a3d70a3d70b,%rdx
  40189b:	0a d7 a3 
  40189e:	48 f7 ea             	imul   %rdx
  4018a1:	48 01 ca             	add    %rcx,%rdx
  4018a4:	48 c1 fa 06          	sar    $0x6,%rdx
  4018a8:	48 89 c8             	mov    %rcx,%rax
  4018ab:	48 c1 f8 3f          	sar    $0x3f,%rax
  4018af:	48 29 c2             	sub    %rax,%rdx
  4018b2:	48 8d 04 92          	lea    (%rdx,%rdx,4),%rax
  4018b6:	48 8d 14 80          	lea    (%rax,%rax,4),%rdx
  4018ba:	48 8d 04 95 00 00 00 	lea    0x0(,%rdx,4),%rax
  4018c1:	00 
  4018c2:	48 29 c1             	sub    %rax,%rcx
  4018c5:	4c 8d 24 0c          	lea    (%rsp,%rcx,1),%r12
  4018c9:	89 ea                	mov    %ebp,%edx
  4018cb:	48 8d 35 36 18 00 00 	lea    0x1836(%rip),%rsi        # 403108 <_IO_stdin_used+0x2e8>
  4018d2:	4c 89 e7             	mov    %r12,%rdi
  4018d5:	b8 00 00 00 00       	mov    $0x0,%eax
  4018da:	e8 c1 f4 ff ff       	callq  400da0 <sprintf@plt>
  4018df:	ba 09 00 00 00       	mov    $0x9,%edx
  4018e4:	4c 89 e6             	mov    %r12,%rsi
  4018e7:	48 89 df             	mov    %rbx,%rdi
  4018ea:	e8 21 f3 ff ff       	callq  400c10 <strncmp@plt>
  4018ef:	85 c0                	test   %eax,%eax
  4018f1:	0f 94 c0             	sete   %al
  4018f4:	0f b6 c0             	movzbl %al,%eax
  4018f7:	48 83 c4 70          	add    $0x70,%rsp
  4018fb:	5b                   	pop    %rbx
  4018fc:	5d                   	pop    %rbp
  4018fd:	41 5c                	pop    %r12
  4018ff:	c3                   	retq   

0000000000401900 <touch3>:
  401900:	53                   	push   %rbx
  401901:	48 89 fb             	mov    %rdi,%rbx
  401904:	c7 05 ee 3b 20 00 03 	movl   $0x3,0x203bee(%rip)        # 6054fc <vlevel>
  40190b:	00 00 00 
  40190e:	48 89 fe             	mov    %rdi,%rsi
  401911:	8b 3d ed 3b 20 00    	mov    0x203bed(%rip),%edi        # 605504 <cookie>
  401917:	e8 63 ff ff ff       	callq  40187f <hexmatch>
  40191c:	85 c0                	test   %eax,%eax
  40191e:	74 28                	je     401948 <touch3+0x48>
  401920:	48 89 de             	mov    %rbx,%rsi
  401923:	48 8d 3d 36 18 00 00 	lea    0x1836(%rip),%rdi        # 403160 <_IO_stdin_used+0x340>
  40192a:	b8 00 00 00 00       	mov    $0x0,%eax
  40192f:	e8 2c f3 ff ff       	callq  400c60 <printf@plt>
  401934:	bf 03 00 00 00       	mov    $0x3,%edi
  401939:	e8 2c 04 00 00       	callq  401d6a <validate>
  40193e:	bf 00 00 00 00       	mov    $0x0,%edi
  401943:	e8 68 f4 ff ff       	callq  400db0 <exit@plt>
  401948:	48 89 de             	mov    %rbx,%rsi
  40194b:	48 8d 3d 36 18 00 00 	lea    0x1836(%rip),%rdi        # 403188 <_IO_stdin_used+0x368>
  401952:	b8 00 00 00 00       	mov    $0x0,%eax
  401957:	e8 04 f3 ff ff       	callq  400c60 <printf@plt>
  40195c:	bf 03 00 00 00       	mov    $0x3,%edi
  401961:	e8 c2 04 00 00       	callq  401e28 <fail>
  401966:	eb d6                	jmp    40193e <touch3+0x3e>

0000000000401968 <test>:
  401968:	48 83 ec 08          	sub    $0x8,%rsp
  40196c:	b8 00 00 00 00       	mov    $0x0,%eax
  401971:	e8 6b fe ff ff       	callq  4017e1 <getbuf>
  401976:	89 c6                	mov    %eax,%esi
  401978:	48 8d 3d 31 18 00 00 	lea    0x1831(%rip),%rdi        # 4031b0 <_IO_stdin_used+0x390>
  40197f:	b8 00 00 00 00       	mov    $0x0,%eax
  401984:	e8 d7 f2 ff ff       	callq  400c60 <printf@plt>
  401989:	48 83 c4 08          	add    $0x8,%rsp
  40198d:	c3                   	retq   

000000000040198e <start_farm>:
  40198e:	b8 01 00 00 00       	mov    $0x1,%eax
  401993:	c3                   	retq   

0000000000401994 <getval_280>:
  401994:	b8 50 87 58 90       	mov    $0x90588750,%eax
  401999:	c3                   	retq   

000000000040199a <setval_111>:
  40199a:	c7 07 48 89 c7 c3    	movl   $0xc3c78948,(%rdi)
  4019a0:	c3                   	retq   

00000000004019a1 <setval_315>:
  4019a1:	c7 07 48 89 c7 91    	movl   $0x91c78948,(%rdi)
  4019a7:	c3                   	retq   

00000000004019a8 <addval_168>:
  4019a8:	8d 87 01 d8 90 c3    	lea    -0x3c6f27ff(%rdi),%eax
  4019ae:	c3                   	retq   

00000000004019af <getval_230>:
  4019af:	b8 48 89 c7 c1       	mov    $0xc1c78948,%eax
  4019b4:	c3                   	retq   

00000000004019b5 <addval_236>:
  4019b5:	8d 87 48 89 c7 c3    	lea    -0x3c3876b8(%rdi),%eax
  4019bb:	c3                   	retq   

00000000004019bc <getval_317>:
  4019bc:	b8 50 58 90 90       	mov    $0x90905850,%eax
  4019c1:	c3                   	retq   

00000000004019c2 <setval_277>:
  4019c2:	c7 07 ec 18 90 c3    	movl   $0xc39018ec,(%rdi)
  4019c8:	c3                   	retq   

00000000004019c9 <mid_farm>:
  4019c9:	b8 01 00 00 00       	mov    $0x1,%eax
  4019ce:	c3                   	retq   

00000000004019cf <add_xy>:
  4019cf:	48 8d 04 37          	lea    (%rdi,%rsi,1),%rax
  4019d3:	c3                   	retq   

00000000004019d4 <setval_183>:
  4019d4:	c7 07 48 c9 e0 c3    	movl   $0xc3e0c948,(%rdi)
  4019da:	c3                   	retq   

00000000004019db <setval_227>:
  4019db:	c7 07 48 89 e0 90    	movl   $0x90e08948,(%rdi)
  4019e1:	c3                   	retq   

00000000004019e2 <getval_117>:
  4019e2:	b8 a9 c2 20 c9       	mov    $0xc920c2a9,%eax
  4019e7:	c3                   	retq   

00000000004019e8 <addval_468>:
  4019e8:	8d 87 8d ce 84 d2    	lea    -0x2d7b3173(%rdi),%eax
  4019ee:	c3                   	retq   

00000000004019ef <setval_243>:
  4019ef:	c7 07 4c 89 e0 c3    	movl   $0xc3e0894c,(%rdi)
  4019f5:	c3                   	retq   

00000000004019f6 <getval_372>:
  4019f6:	b8 99 c2 84 c0       	mov    $0xc084c299,%eax
  4019fb:	c3                   	retq   

00000000004019fc <setval_265>:
  4019fc:	c7 07 81 c2 90 c3    	movl   $0xc390c281,(%rdi)
  401a02:	c3                   	retq   

0000000000401a03 <getval_161>:
  401a03:	b8 89 ce 18 c0       	mov    $0xc018ce89,%eax
  401a08:	c3                   	retq   

0000000000401a09 <addval_281>:
  401a09:	8d 87 89 ce 90 c1    	lea    -0x3e6f3177(%rdi),%eax
  401a0f:	c3                   	retq   

0000000000401a10 <getval_357>:
  401a10:	b8 89 d1 c4 db       	mov    $0xdbc4d189,%eax
  401a15:	c3                   	retq   

0000000000401a16 <addval_192>:
  401a16:	8d 87 89 c2 94 90    	lea    -0x6f6b3d77(%rdi),%eax
  401a1c:	c3                   	retq   

0000000000401a1d <setval_342>:
  401a1d:	c7 07 89 d1 92 c3    	movl   $0xc392d189,(%rdi)
  401a23:	c3                   	retq   

0000000000401a24 <addval_289>:
  401a24:	8d 87 c9 ce 20 c9    	lea    -0x36df3137(%rdi),%eax
  401a2a:	c3                   	retq   

0000000000401a2b <addval_276>:
  401a2b:	8d 87 89 ce 84 db    	lea    -0x247b3177(%rdi),%eax
  401a31:	c3                   	retq   

0000000000401a32 <addval_328>:
  401a32:	8d 87 48 89 e0 90    	lea    -0x6f1f76b8(%rdi),%eax
  401a38:	c3                   	retq   

0000000000401a39 <setval_316>:
  401a39:	c7 07 89 ce 18 db    	movl   $0xdb18ce89,(%rdi)
  401a3f:	c3                   	retq   

0000000000401a40 <addval_235>:
  401a40:	8d 87 e0 8b c2 c3    	lea    -0x3c3d7420(%rdi),%eax
  401a46:	c3                   	retq   

0000000000401a47 <getval_283>:
  401a47:	b8 48 89 e0 91       	mov    $0x91e08948,%eax
  401a4c:	c3                   	retq   

0000000000401a4d <getval_162>:
  401a4d:	b8 82 89 ce 90       	mov    $0x90ce8982,%eax
  401a52:	c3                   	retq   

0000000000401a53 <addval_199>:
  401a53:	8d 87 48 89 e0 92    	lea    -0x6d1f76b8(%rdi),%eax
  401a59:	c3                   	retq   

0000000000401a5a <addval_324>:
  401a5a:	8d 87 89 d1 18 db    	lea    -0x24e72e77(%rdi),%eax
  401a60:	c3                   	retq   

0000000000401a61 <getval_196>:
  401a61:	b8 89 ce 60 c0       	mov    $0xc060ce89,%eax
  401a66:	c3                   	retq   

0000000000401a67 <setval_318>:
  401a67:	c7 07 88 d1 38 c9    	movl   $0xc938d188,(%rdi)
  401a6d:	c3                   	retq   

0000000000401a6e <getval_482>:
  401a6e:	b8 89 d1 08 db       	mov    $0xdb08d189,%eax
  401a73:	c3                   	retq   

0000000000401a74 <addval_294>:
  401a74:	8d 87 48 8b e0 90    	lea    -0x6f1f74b8(%rdi),%eax
  401a7a:	c3                   	retq   

0000000000401a7b <addval_275>:
  401a7b:	8d 87 99 d1 84 c0    	lea    -0x3f7b2e67(%rdi),%eax
  401a81:	c3                   	retq   

0000000000401a82 <addval_237>:
  401a82:	8d 87 b8 89 c2 90    	lea    -0x6f3d7648(%rdi),%eax
  401a88:	c3                   	retq   

0000000000401a89 <addval_436>:
  401a89:	8d 87 89 d1 48 db    	lea    -0x24b72e77(%rdi),%eax
  401a8f:	c3                   	retq   

0000000000401a90 <setval_433>:
  401a90:	c7 07 89 c2 38 c9    	movl   $0xc938c289,(%rdi)
  401a96:	c3                   	retq   

0000000000401a97 <setval_193>:
  401a97:	c7 07 c9 c2 08 d2    	movl   $0xd208c2c9,(%rdi)
  401a9d:	c3                   	retq   

0000000000401a9e <getval_473>:
  401a9e:	b8 89 d1 90 c3       	mov    $0xc390d189,%eax
  401aa3:	c3                   	retq   

0000000000401aa4 <getval_125>:
  401aa4:	b8 48 89 e0 c7       	mov    $0xc7e08948,%eax
  401aa9:	c3                   	retq   

0000000000401aaa <end_farm>:
  401aaa:	b8 01 00 00 00       	mov    $0x1,%eax
  401aaf:	c3                   	retq   

0000000000401ab0 <save_char>:
  401ab0:	8b 05 6e 46 20 00    	mov    0x20466e(%rip),%eax        # 606124 <gets_cnt>
  401ab6:	3d ff 03 00 00       	cmp    $0x3ff,%eax
  401abb:	7f 4a                	jg     401b07 <save_char+0x57>
  401abd:	8d 14 40             	lea    (%rax,%rax,2),%edx
  401ac0:	89 f9                	mov    %edi,%ecx
  401ac2:	c0 e9 04             	shr    $0x4,%cl
  401ac5:	4c 8d 05 04 1a 00 00 	lea    0x1a04(%rip),%r8        # 4034d0 <trans_char>
  401acc:	83 e1 0f             	and    $0xf,%ecx
  401acf:	45 0f b6 0c 08       	movzbl (%r8,%rcx,1),%r9d
  401ad4:	48 8d 0d 45 3a 20 00 	lea    0x203a45(%rip),%rcx        # 605520 <gets_buf>
  401adb:	48 63 f2             	movslq %edx,%rsi
  401ade:	44 88 0c 31          	mov    %r9b,(%rcx,%rsi,1)
  401ae2:	8d 72 01             	lea    0x1(%rdx),%esi
  401ae5:	83 e7 0f             	and    $0xf,%edi
  401ae8:	41 0f b6 3c 38       	movzbl (%r8,%rdi,1),%edi
  401aed:	48 63 f6             	movslq %esi,%rsi
  401af0:	40 88 3c 31          	mov    %dil,(%rcx,%rsi,1)
  401af4:	83 c2 02             	add    $0x2,%edx
  401af7:	48 63 d2             	movslq %edx,%rdx
  401afa:	c6 04 11 20          	movb   $0x20,(%rcx,%rdx,1)
  401afe:	83 c0 01             	add    $0x1,%eax
  401b01:	89 05 1d 46 20 00    	mov    %eax,0x20461d(%rip)        # 606124 <gets_cnt>
  401b07:	f3 c3                	repz retq 

0000000000401b09 <save_term>:
  401b09:	8b 05 15 46 20 00    	mov    0x204615(%rip),%eax        # 606124 <gets_cnt>
  401b0f:	8d 04 40             	lea    (%rax,%rax,2),%eax
  401b12:	48 98                	cltq   
  401b14:	48 8d 15 05 3a 20 00 	lea    0x203a05(%rip),%rdx        # 605520 <gets_buf>
  401b1b:	c6 04 02 00          	movb   $0x0,(%rdx,%rax,1)
  401b1f:	c3                   	retq   

0000000000401b20 <check_fail>:
  401b20:	48 83 ec 08          	sub    $0x8,%rsp
  401b24:	0f be 35 fd 45 20 00 	movsbl 0x2045fd(%rip),%esi        # 606128 <target_prefix>
  401b2b:	48 8d 0d ee 39 20 00 	lea    0x2039ee(%rip),%rcx        # 605520 <gets_buf>
  401b32:	8b 15 c0 39 20 00    	mov    0x2039c0(%rip),%edx        # 6054f8 <check_level>
  401b38:	48 8d 3d 94 16 00 00 	lea    0x1694(%rip),%rdi        # 4031d3 <_IO_stdin_used+0x3b3>
  401b3f:	b8 00 00 00 00       	mov    $0x0,%eax
  401b44:	e8 17 f1 ff ff       	callq  400c60 <printf@plt>
  401b49:	bf 01 00 00 00       	mov    $0x1,%edi
  401b4e:	e8 5d f2 ff ff       	callq  400db0 <exit@plt>

0000000000401b53 <Gets>:
  401b53:	41 54                	push   %r12
  401b55:	55                   	push   %rbp
  401b56:	53                   	push   %rbx
  401b57:	49 89 fc             	mov    %rdi,%r12
  401b5a:	c7 05 c0 45 20 00 00 	movl   $0x0,0x2045c0(%rip)        # 606124 <gets_cnt>
  401b61:	00 00 00 
  401b64:	48 89 fb             	mov    %rdi,%rbx
  401b67:	eb 11                	jmp    401b7a <Gets+0x27>
  401b69:	48 8d 6b 01          	lea    0x1(%rbx),%rbp
  401b6d:	88 03                	mov    %al,(%rbx)
  401b6f:	0f b6 f8             	movzbl %al,%edi
  401b72:	e8 39 ff ff ff       	callq  401ab0 <save_char>
  401b77:	48 89 eb             	mov    %rbp,%rbx
  401b7a:	48 8b 3d 6f 39 20 00 	mov    0x20396f(%rip),%rdi        # 6054f0 <infile>
  401b81:	e8 9a f1 ff ff       	callq  400d20 <_IO_getc@plt>
  401b86:	83 f8 ff             	cmp    $0xffffffff,%eax
  401b89:	74 05                	je     401b90 <Gets+0x3d>
  401b8b:	83 f8 0a             	cmp    $0xa,%eax
  401b8e:	75 d9                	jne    401b69 <Gets+0x16>
  401b90:	c6 03 00             	movb   $0x0,(%rbx)
  401b93:	b8 00 00 00 00       	mov    $0x0,%eax
  401b98:	e8 6c ff ff ff       	callq  401b09 <save_term>
  401b9d:	4c 89 e0             	mov    %r12,%rax
  401ba0:	5b                   	pop    %rbx
  401ba1:	5d                   	pop    %rbp
  401ba2:	41 5c                	pop    %r12
  401ba4:	c3                   	retq   

0000000000401ba5 <notify_server>:
  401ba5:	83 3d 5c 39 20 00 00 	cmpl   $0x0,0x20395c(%rip)        # 605508 <is_checker>
  401bac:	0f 85 de 00 00 00    	jne    401c90 <notify_server+0xeb>
  401bb2:	55                   	push   %rbp
  401bb3:	53                   	push   %rbx
  401bb4:	48 81 ec 08 40 00 00 	sub    $0x4008,%rsp
  401bbb:	89 fb                	mov    %edi,%ebx
  401bbd:	8b 05 61 45 20 00    	mov    0x204561(%rip),%eax        # 606124 <gets_cnt>
  401bc3:	83 c0 64             	add    $0x64,%eax
  401bc6:	3d 00 20 00 00       	cmp    $0x2000,%eax
  401bcb:	0f 8f c1 00 00 00    	jg     401c92 <notify_server+0xed>
  401bd1:	44 0f be 0d 4f 45 20 	movsbl 0x20454f(%rip),%r9d        # 606128 <target_prefix>
  401bd8:	00 
  401bd9:	83 3d a8 38 20 00 00 	cmpl   $0x0,0x2038a8(%rip)        # 605488 <notify>
  401be0:	0f 84 c7 00 00 00    	je     401cad <notify_server+0x108>
  401be6:	44 8b 05 13 39 20 00 	mov    0x203913(%rip),%r8d        # 605500 <authkey>
  401bed:	85 db                	test   %ebx,%ebx
  401bef:	0f 84 c3 00 00 00    	je     401cb8 <notify_server+0x113>
  401bf5:	48 8d 2d ed 15 00 00 	lea    0x15ed(%rip),%rbp        # 4031e9 <_IO_stdin_used+0x3c9>
  401bfc:	48 8d bc 24 00 20 00 	lea    0x2000(%rsp),%rdi
  401c03:	00 
  401c04:	48 8d 05 15 39 20 00 	lea    0x203915(%rip),%rax        # 605520 <gets_buf>
  401c0b:	50                   	push   %rax
  401c0c:	56                   	push   %rsi
  401c0d:	48 89 e9             	mov    %rbp,%rcx
  401c10:	8b 15 1a 35 20 00    	mov    0x20351a(%rip),%edx        # 605130 <target_id>
  401c16:	48 8d 35 d6 15 00 00 	lea    0x15d6(%rip),%rsi        # 4031f3 <_IO_stdin_used+0x3d3>
  401c1d:	b8 00 00 00 00       	mov    $0x0,%eax
  401c22:	e8 79 f1 ff ff       	callq  400da0 <sprintf@plt>
  401c27:	48 83 c4 10          	add    $0x10,%rsp
  401c2b:	83 3d 56 38 20 00 00 	cmpl   $0x0,0x203856(%rip)        # 605488 <notify>
  401c32:	0f 84 b8 00 00 00    	je     401cf0 <notify_server+0x14b>
  401c38:	85 db                	test   %ebx,%ebx
  401c3a:	0f 84 a2 00 00 00    	je     401ce2 <notify_server+0x13d>
  401c40:	48 8d 8c 24 00 20 00 	lea    0x2000(%rsp),%rcx
  401c47:	00 
  401c48:	49 89 e1             	mov    %rsp,%r9
  401c4b:	41 b8 00 00 00 00    	mov    $0x0,%r8d
  401c51:	48 8b 15 f0 34 20 00 	mov    0x2034f0(%rip),%rdx        # 605148 <lab>
  401c58:	48 8b 35 f1 34 20 00 	mov    0x2034f1(%rip),%rsi        # 605150 <course>
  401c5f:	48 8b 3d da 34 20 00 	mov    0x2034da(%rip),%rdi        # 605140 <user_id>
  401c66:	e8 6e 10 00 00       	callq  402cd9 <driver_post>
  401c6b:	85 c0                	test   %eax,%eax
  401c6d:	78 55                	js     401cc4 <notify_server+0x11f>
  401c6f:	48 8d 3d c2 16 00 00 	lea    0x16c2(%rip),%rdi        # 403338 <_IO_stdin_used+0x518>
  401c76:	e8 b5 ef ff ff       	callq  400c30 <puts@plt>
  401c7b:	48 8d 3d 99 15 00 00 	lea    0x1599(%rip),%rdi        # 40321b <_IO_stdin_used+0x3fb>
  401c82:	e8 a9 ef ff ff       	callq  400c30 <puts@plt>
  401c87:	48 81 c4 08 40 00 00 	add    $0x4008,%rsp
  401c8e:	5b                   	pop    %rbx
  401c8f:	5d                   	pop    %rbp
  401c90:	f3 c3                	repz retq 
  401c92:	48 8d 3d 6f 16 00 00 	lea    0x166f(%rip),%rdi        # 403308 <_IO_stdin_used+0x4e8>
  401c99:	b8 00 00 00 00       	mov    $0x0,%eax
  401c9e:	e8 bd ef ff ff       	callq  400c60 <printf@plt>
  401ca3:	bf 01 00 00 00       	mov    $0x1,%edi
  401ca8:	e8 03 f1 ff ff       	callq  400db0 <exit@plt>
  401cad:	41 b8 ff ff ff ff    	mov    $0xffffffff,%r8d
  401cb3:	e9 35 ff ff ff       	jmpq   401bed <notify_server+0x48>
  401cb8:	48 8d 2d 2f 15 00 00 	lea    0x152f(%rip),%rbp        # 4031ee <_IO_stdin_used+0x3ce>
  401cbf:	e9 38 ff ff ff       	jmpq   401bfc <notify_server+0x57>
  401cc4:	48 89 e6             	mov    %rsp,%rsi
  401cc7:	48 8d 3d 41 15 00 00 	lea    0x1541(%rip),%rdi        # 40320f <_IO_stdin_used+0x3ef>
  401cce:	b8 00 00 00 00       	mov    $0x0,%eax
  401cd3:	e8 88 ef ff ff       	callq  400c60 <printf@plt>
  401cd8:	bf 01 00 00 00       	mov    $0x1,%edi
  401cdd:	e8 ce f0 ff ff       	callq  400db0 <exit@plt>
  401ce2:	48 8d 3d 3c 15 00 00 	lea    0x153c(%rip),%rdi        # 403225 <_IO_stdin_used+0x405>
  401ce9:	e8 42 ef ff ff       	callq  400c30 <puts@plt>
  401cee:	eb 97                	jmp    401c87 <notify_server+0xe2>
  401cf0:	48 89 ee             	mov    %rbp,%rsi
  401cf3:	48 8d 3d 76 16 00 00 	lea    0x1676(%rip),%rdi        # 403370 <_IO_stdin_used+0x550>
  401cfa:	b8 00 00 00 00       	mov    $0x0,%eax
  401cff:	e8 5c ef ff ff       	callq  400c60 <printf@plt>
  401d04:	48 8b 35 35 34 20 00 	mov    0x203435(%rip),%rsi        # 605140 <user_id>
  401d0b:	48 8d 3d 1a 15 00 00 	lea    0x151a(%rip),%rdi        # 40322c <_IO_stdin_used+0x40c>
  401d12:	b8 00 00 00 00       	mov    $0x0,%eax
  401d17:	e8 44 ef ff ff       	callq  400c60 <printf@plt>
  401d1c:	48 8b 35 2d 34 20 00 	mov    0x20342d(%rip),%rsi        # 605150 <course>
  401d23:	48 8d 3d 0f 15 00 00 	lea    0x150f(%rip),%rdi        # 403239 <_IO_stdin_used+0x419>
  401d2a:	b8 00 00 00 00       	mov    $0x0,%eax
  401d2f:	e8 2c ef ff ff       	callq  400c60 <printf@plt>
  401d34:	48 8b 35 0d 34 20 00 	mov    0x20340d(%rip),%rsi        # 605148 <lab>
  401d3b:	48 8d 3d 03 15 00 00 	lea    0x1503(%rip),%rdi        # 403245 <_IO_stdin_used+0x425>
  401d42:	b8 00 00 00 00       	mov    $0x0,%eax
  401d47:	e8 14 ef ff ff       	callq  400c60 <printf@plt>
  401d4c:	48 8d b4 24 00 20 00 	lea    0x2000(%rsp),%rsi
  401d53:	00 
  401d54:	48 8d 3d f3 14 00 00 	lea    0x14f3(%rip),%rdi        # 40324e <_IO_stdin_used+0x42e>
  401d5b:	b8 00 00 00 00       	mov    $0x0,%eax
  401d60:	e8 fb ee ff ff       	callq  400c60 <printf@plt>
  401d65:	e9 1d ff ff ff       	jmpq   401c87 <notify_server+0xe2>

0000000000401d6a <validate>:
  401d6a:	53                   	push   %rbx
  401d6b:	89 fb                	mov    %edi,%ebx
  401d6d:	83 3d 94 37 20 00 00 	cmpl   $0x0,0x203794(%rip)        # 605508 <is_checker>
  401d74:	74 68                	je     401dde <validate+0x74>
  401d76:	39 3d 80 37 20 00    	cmp    %edi,0x203780(%rip)        # 6054fc <vlevel>
  401d7c:	75 2d                	jne    401dab <validate+0x41>
  401d7e:	8b 35 74 37 20 00    	mov    0x203774(%rip),%esi        # 6054f8 <check_level>
  401d84:	39 f7                	cmp    %esi,%edi
  401d86:	75 39                	jne    401dc1 <validate+0x57>
  401d88:	0f be 35 99 43 20 00 	movsbl 0x204399(%rip),%esi        # 606128 <target_prefix>
  401d8f:	48 8d 0d 8a 37 20 00 	lea    0x20378a(%rip),%rcx        # 605520 <gets_buf>
  401d96:	89 fa                	mov    %edi,%edx
  401d98:	48 8d 3d d9 14 00 00 	lea    0x14d9(%rip),%rdi        # 403278 <_IO_stdin_used+0x458>
  401d9f:	b8 00 00 00 00       	mov    $0x0,%eax
  401da4:	e8 b7 ee ff ff       	callq  400c60 <printf@plt>
  401da9:	5b                   	pop    %rbx
  401daa:	c3                   	retq   
  401dab:	48 8d 3d a8 14 00 00 	lea    0x14a8(%rip),%rdi        # 40325a <_IO_stdin_used+0x43a>
  401db2:	e8 79 ee ff ff       	callq  400c30 <puts@plt>
  401db7:	b8 00 00 00 00       	mov    $0x0,%eax
  401dbc:	e8 5f fd ff ff       	callq  401b20 <check_fail>
  401dc1:	89 fa                	mov    %edi,%edx
  401dc3:	48 8d 3d ce 15 00 00 	lea    0x15ce(%rip),%rdi        # 403398 <_IO_stdin_used+0x578>
  401dca:	b8 00 00 00 00       	mov    $0x0,%eax
  401dcf:	e8 8c ee ff ff       	callq  400c60 <printf@plt>
  401dd4:	b8 00 00 00 00       	mov    $0x0,%eax
  401dd9:	e8 42 fd ff ff       	callq  401b20 <check_fail>
  401dde:	3b 3d 18 37 20 00    	cmp    0x203718(%rip),%edi        # 6054fc <vlevel>
  401de4:	74 1a                	je     401e00 <validate+0x96>
  401de6:	48 8d 3d 6d 14 00 00 	lea    0x146d(%rip),%rdi        # 40325a <_IO_stdin_used+0x43a>
  401ded:	e8 3e ee ff ff       	callq  400c30 <puts@plt>
  401df2:	89 de                	mov    %ebx,%esi
  401df4:	bf 00 00 00 00       	mov    $0x0,%edi
  401df9:	e8 a7 fd ff ff       	callq  401ba5 <notify_server>
  401dfe:	eb a9                	jmp    401da9 <validate+0x3f>
  401e00:	0f be 15 21 43 20 00 	movsbl 0x204321(%rip),%edx        # 606128 <target_prefix>
  401e07:	89 fe                	mov    %edi,%esi
  401e09:	48 8d 3d b0 15 00 00 	lea    0x15b0(%rip),%rdi        # 4033c0 <_IO_stdin_used+0x5a0>
  401e10:	b8 00 00 00 00       	mov    $0x0,%eax
  401e15:	e8 46 ee ff ff       	callq  400c60 <printf@plt>
  401e1a:	89 de                	mov    %ebx,%esi
  401e1c:	bf 01 00 00 00       	mov    $0x1,%edi
  401e21:	e8 7f fd ff ff       	callq  401ba5 <notify_server>
  401e26:	eb 81                	jmp    401da9 <validate+0x3f>

0000000000401e28 <fail>:
  401e28:	48 83 ec 08          	sub    $0x8,%rsp
  401e2c:	83 3d d5 36 20 00 00 	cmpl   $0x0,0x2036d5(%rip)        # 605508 <is_checker>
  401e33:	75 11                	jne    401e46 <fail+0x1e>
  401e35:	89 fe                	mov    %edi,%esi
  401e37:	bf 00 00 00 00       	mov    $0x0,%edi
  401e3c:	e8 64 fd ff ff       	callq  401ba5 <notify_server>
  401e41:	48 83 c4 08          	add    $0x8,%rsp
  401e45:	c3                   	retq   
  401e46:	b8 00 00 00 00       	mov    $0x0,%eax
  401e4b:	e8 d0 fc ff ff       	callq  401b20 <check_fail>

0000000000401e50 <bushandler>:
  401e50:	48 83 ec 08          	sub    $0x8,%rsp
  401e54:	83 3d ad 36 20 00 00 	cmpl   $0x0,0x2036ad(%rip)        # 605508 <is_checker>
  401e5b:	74 16                	je     401e73 <bushandler+0x23>
  401e5d:	48 8d 3d 29 14 00 00 	lea    0x1429(%rip),%rdi        # 40328d <_IO_stdin_used+0x46d>
  401e64:	e8 c7 ed ff ff       	callq  400c30 <puts@plt>
  401e69:	b8 00 00 00 00       	mov    $0x0,%eax
  401e6e:	e8 ad fc ff ff       	callq  401b20 <check_fail>
  401e73:	48 8d 3d 7e 15 00 00 	lea    0x157e(%rip),%rdi        # 4033f8 <_IO_stdin_used+0x5d8>
  401e7a:	e8 b1 ed ff ff       	callq  400c30 <puts@plt>
  401e7f:	48 8d 3d 11 14 00 00 	lea    0x1411(%rip),%rdi        # 403297 <_IO_stdin_used+0x477>
  401e86:	e8 a5 ed ff ff       	callq  400c30 <puts@plt>
  401e8b:	be 00 00 00 00       	mov    $0x0,%esi
  401e90:	bf 00 00 00 00       	mov    $0x0,%edi
  401e95:	e8 0b fd ff ff       	callq  401ba5 <notify_server>
  401e9a:	bf 01 00 00 00       	mov    $0x1,%edi
  401e9f:	e8 0c ef ff ff       	callq  400db0 <exit@plt>

0000000000401ea4 <seghandler>:
  401ea4:	48 83 ec 08          	sub    $0x8,%rsp
  401ea8:	83 3d 59 36 20 00 00 	cmpl   $0x0,0x203659(%rip)        # 605508 <is_checker>
  401eaf:	74 16                	je     401ec7 <seghandler+0x23>
  401eb1:	48 8d 3d f5 13 00 00 	lea    0x13f5(%rip),%rdi        # 4032ad <_IO_stdin_used+0x48d>
  401eb8:	e8 73 ed ff ff       	callq  400c30 <puts@plt>
  401ebd:	b8 00 00 00 00       	mov    $0x0,%eax
  401ec2:	e8 59 fc ff ff       	callq  401b20 <check_fail>
  401ec7:	48 8d 3d 4a 15 00 00 	lea    0x154a(%rip),%rdi        # 403418 <_IO_stdin_used+0x5f8>
  401ece:	e8 5d ed ff ff       	callq  400c30 <puts@plt>
  401ed3:	48 8d 3d bd 13 00 00 	lea    0x13bd(%rip),%rdi        # 403297 <_IO_stdin_used+0x477>
  401eda:	e8 51 ed ff ff       	callq  400c30 <puts@plt>
  401edf:	be 00 00 00 00       	mov    $0x0,%esi
  401ee4:	bf 00 00 00 00       	mov    $0x0,%edi
  401ee9:	e8 b7 fc ff ff       	callq  401ba5 <notify_server>
  401eee:	bf 01 00 00 00       	mov    $0x1,%edi
  401ef3:	e8 b8 ee ff ff       	callq  400db0 <exit@plt>

0000000000401ef8 <illegalhandler>:
  401ef8:	48 83 ec 08          	sub    $0x8,%rsp
  401efc:	83 3d 05 36 20 00 00 	cmpl   $0x0,0x203605(%rip)        # 605508 <is_checker>
  401f03:	74 16                	je     401f1b <illegalhandler+0x23>
  401f05:	48 8d 3d b4 13 00 00 	lea    0x13b4(%rip),%rdi        # 4032c0 <_IO_stdin_used+0x4a0>
  401f0c:	e8 1f ed ff ff       	callq  400c30 <puts@plt>
  401f11:	b8 00 00 00 00       	mov    $0x0,%eax
  401f16:	e8 05 fc ff ff       	callq  401b20 <check_fail>
  401f1b:	48 8d 3d 1e 15 00 00 	lea    0x151e(%rip),%rdi        # 403440 <_IO_stdin_used+0x620>
  401f22:	e8 09 ed ff ff       	callq  400c30 <puts@plt>
  401f27:	48 8d 3d 69 13 00 00 	lea    0x1369(%rip),%rdi        # 403297 <_IO_stdin_used+0x477>
  401f2e:	e8 fd ec ff ff       	callq  400c30 <puts@plt>
  401f33:	be 00 00 00 00       	mov    $0x0,%esi
  401f38:	bf 00 00 00 00       	mov    $0x0,%edi
  401f3d:	e8 63 fc ff ff       	callq  401ba5 <notify_server>
  401f42:	bf 01 00 00 00       	mov    $0x1,%edi
  401f47:	e8 64 ee ff ff       	callq  400db0 <exit@plt>

0000000000401f4c <sigalrmhandler>:
  401f4c:	48 83 ec 08          	sub    $0x8,%rsp
  401f50:	83 3d b1 35 20 00 00 	cmpl   $0x0,0x2035b1(%rip)        # 605508 <is_checker>
  401f57:	74 16                	je     401f6f <sigalrmhandler+0x23>
  401f59:	48 8d 3d 74 13 00 00 	lea    0x1374(%rip),%rdi        # 4032d4 <_IO_stdin_used+0x4b4>
  401f60:	e8 cb ec ff ff       	callq  400c30 <puts@plt>
  401f65:	b8 00 00 00 00       	mov    $0x0,%eax
  401f6a:	e8 b1 fb ff ff       	callq  401b20 <check_fail>
  401f6f:	be 05 00 00 00       	mov    $0x5,%esi
  401f74:	48 8d 3d f5 14 00 00 	lea    0x14f5(%rip),%rdi        # 403470 <_IO_stdin_used+0x650>
  401f7b:	b8 00 00 00 00       	mov    $0x0,%eax
  401f80:	e8 db ec ff ff       	callq  400c60 <printf@plt>
  401f85:	be 00 00 00 00       	mov    $0x0,%esi
  401f8a:	bf 00 00 00 00       	mov    $0x0,%edi
  401f8f:	e8 11 fc ff ff       	callq  401ba5 <notify_server>
  401f94:	bf 01 00 00 00       	mov    $0x1,%edi
  401f99:	e8 12 ee ff ff       	callq  400db0 <exit@plt>

0000000000401f9e <launch>:
  401f9e:	55                   	push   %rbp
  401f9f:	48 89 e5             	mov    %rsp,%rbp
  401fa2:	48 89 fa             	mov    %rdi,%rdx
  401fa5:	48 8d 47 1e          	lea    0x1e(%rdi),%rax
  401fa9:	48 83 e0 f0          	and    $0xfffffffffffffff0,%rax
  401fad:	48 29 c4             	sub    %rax,%rsp
  401fb0:	48 8d 7c 24 0f       	lea    0xf(%rsp),%rdi
  401fb5:	48 83 e7 f0          	and    $0xfffffffffffffff0,%rdi
  401fb9:	be f4 00 00 00       	mov    $0xf4,%esi
  401fbe:	e8 ad ec ff ff       	callq  400c70 <memset@plt>
  401fc3:	48 8b 05 d6 34 20 00 	mov    0x2034d6(%rip),%rax        # 6054a0 <stdin@@GLIBC_2.2.5>
  401fca:	48 39 05 1f 35 20 00 	cmp    %rax,0x20351f(%rip)        # 6054f0 <infile>
  401fd1:	74 2b                	je     401ffe <launch+0x60>
  401fd3:	c7 05 1f 35 20 00 00 	movl   $0x0,0x20351f(%rip)        # 6054fc <vlevel>
  401fda:	00 00 00 
  401fdd:	b8 00 00 00 00       	mov    $0x0,%eax
  401fe2:	e8 81 f9 ff ff       	callq  401968 <test>
  401fe7:	83 3d 1a 35 20 00 00 	cmpl   $0x0,0x20351a(%rip)        # 605508 <is_checker>
  401fee:	75 21                	jne    402011 <launch+0x73>
  401ff0:	48 8d 3d fd 12 00 00 	lea    0x12fd(%rip),%rdi        # 4032f4 <_IO_stdin_used+0x4d4>
  401ff7:	e8 34 ec ff ff       	callq  400c30 <puts@plt>
  401ffc:	c9                   	leaveq 
  401ffd:	c3                   	retq   
  401ffe:	48 8d 3d d7 12 00 00 	lea    0x12d7(%rip),%rdi        # 4032dc <_IO_stdin_used+0x4bc>
  402005:	b8 00 00 00 00       	mov    $0x0,%eax
  40200a:	e8 51 ec ff ff       	callq  400c60 <printf@plt>
  40200f:	eb c2                	jmp    401fd3 <launch+0x35>
  402011:	48 8d 3d d1 12 00 00 	lea    0x12d1(%rip),%rdi        # 4032e9 <_IO_stdin_used+0x4c9>
  402018:	e8 13 ec ff ff       	callq  400c30 <puts@plt>
  40201d:	b8 00 00 00 00       	mov    $0x0,%eax
  402022:	e8 f9 fa ff ff       	callq  401b20 <check_fail>

0000000000402027 <stable_launch>:
  402027:	53                   	push   %rbx
  402028:	48 89 3d b9 34 20 00 	mov    %rdi,0x2034b9(%rip)        # 6054e8 <global_offset>
  40202f:	41 b9 00 00 00 00    	mov    $0x0,%r9d
  402035:	41 b8 00 00 00 00    	mov    $0x0,%r8d
  40203b:	b9 32 01 00 00       	mov    $0x132,%ecx
  402040:	ba 07 00 00 00       	mov    $0x7,%edx
  402045:	be 00 00 10 00       	mov    $0x100000,%esi
  40204a:	bf 00 60 58 55       	mov    $0x55586000,%edi
  40204f:	e8 fc eb ff ff       	callq  400c50 <mmap@plt>
  402054:	48 89 c3             	mov    %rax,%rbx
  402057:	48 3d 00 60 58 55    	cmp    $0x55586000,%rax
  40205d:	75 43                	jne    4020a2 <stable_launch+0x7b>
  40205f:	48 8d 90 f8 ff 0f 00 	lea    0xffff8(%rax),%rdx
  402066:	48 89 15 c3 40 20 00 	mov    %rdx,0x2040c3(%rip)        # 606130 <stack_top>
  40206d:	48 89 e0             	mov    %rsp,%rax
  402070:	48 89 d4             	mov    %rdx,%rsp
  402073:	48 89 c2             	mov    %rax,%rdx
  402076:	48 89 15 63 34 20 00 	mov    %rdx,0x203463(%rip)        # 6054e0 <global_save_stack>
  40207d:	48 8b 3d 64 34 20 00 	mov    0x203464(%rip),%rdi        # 6054e8 <global_offset>
  402084:	e8 15 ff ff ff       	callq  401f9e <launch>
  402089:	48 8b 05 50 34 20 00 	mov    0x203450(%rip),%rax        # 6054e0 <global_save_stack>
  402090:	48 89 c4             	mov    %rax,%rsp
  402093:	be 00 00 10 00       	mov    $0x100000,%esi
  402098:	48 89 df             	mov    %rbx,%rdi
  40209b:	e8 a0 ec ff ff       	callq  400d40 <munmap@plt>
  4020a0:	5b                   	pop    %rbx
  4020a1:	c3                   	retq   
  4020a2:	be 00 00 10 00       	mov    $0x100000,%esi
  4020a7:	48 89 c7             	mov    %rax,%rdi
  4020aa:	e8 91 ec ff ff       	callq  400d40 <munmap@plt>
  4020af:	ba 00 60 58 55       	mov    $0x55586000,%edx
  4020b4:	48 8d 35 ed 13 00 00 	lea    0x13ed(%rip),%rsi        # 4034a8 <_IO_stdin_used+0x688>
  4020bb:	48 8b 3d fe 33 20 00 	mov    0x2033fe(%rip),%rdi        # 6054c0 <stderr@@GLIBC_2.2.5>
  4020c2:	b8 00 00 00 00       	mov    $0x0,%eax
  4020c7:	e8 04 ec ff ff       	callq  400cd0 <fprintf@plt>
  4020cc:	bf 01 00 00 00       	mov    $0x1,%edi
  4020d1:	e8 da ec ff ff       	callq  400db0 <exit@plt>

00000000004020d6 <rio_readinitb>:
  4020d6:	89 37                	mov    %esi,(%rdi)
  4020d8:	c7 47 04 00 00 00 00 	movl   $0x0,0x4(%rdi)
  4020df:	48 8d 47 10          	lea    0x10(%rdi),%rax
  4020e3:	48 89 47 08          	mov    %rax,0x8(%rdi)
  4020e7:	c3                   	retq   

00000000004020e8 <sigalrm_handler>:
  4020e8:	48 83 ec 08          	sub    $0x8,%rsp
  4020ec:	ba 00 00 00 00       	mov    $0x0,%edx
  4020f1:	48 8d 35 e8 13 00 00 	lea    0x13e8(%rip),%rsi        # 4034e0 <trans_char+0x10>
  4020f8:	48 8b 3d c1 33 20 00 	mov    0x2033c1(%rip),%rdi        # 6054c0 <stderr@@GLIBC_2.2.5>
  4020ff:	b8 00 00 00 00       	mov    $0x0,%eax
  402104:	e8 c7 eb ff ff       	callq  400cd0 <fprintf@plt>
  402109:	bf 01 00 00 00       	mov    $0x1,%edi
  40210e:	e8 9d ec ff ff       	callq  400db0 <exit@plt>

0000000000402113 <urlencode>:
  402113:	41 54                	push   %r12
  402115:	55                   	push   %rbp
  402116:	53                   	push   %rbx
  402117:	48 83 ec 10          	sub    $0x10,%rsp
  40211b:	48 89 fb             	mov    %rdi,%rbx
  40211e:	48 89 f5             	mov    %rsi,%rbp
  402121:	b8 00 00 00 00       	mov    $0x0,%eax
  402126:	48 c7 c1 ff ff ff ff 	mov    $0xffffffffffffffff,%rcx
  40212d:	f2 ae                	repnz scas %es:(%rdi),%al
  40212f:	48 f7 d1             	not    %rcx
  402132:	8d 41 ff             	lea    -0x1(%rcx),%eax
  402135:	eb 0e                	jmp    402145 <urlencode+0x32>
  402137:	88 55 00             	mov    %dl,0x0(%rbp)
  40213a:	48 8d 6d 01          	lea    0x1(%rbp),%rbp
  40213e:	48 83 c3 01          	add    $0x1,%rbx
  402142:	44 89 e0             	mov    %r12d,%eax
  402145:	44 8d 60 ff          	lea    -0x1(%rax),%r12d
  402149:	85 c0                	test   %eax,%eax
  40214b:	0f 84 95 00 00 00    	je     4021e6 <urlencode+0xd3>
  402151:	0f b6 13             	movzbl (%rbx),%edx
  402154:	80 fa 2a             	cmp    $0x2a,%dl
  402157:	0f 94 c1             	sete   %cl
  40215a:	80 fa 2d             	cmp    $0x2d,%dl
  40215d:	0f 94 c0             	sete   %al
  402160:	08 c1                	or     %al,%cl
  402162:	75 d3                	jne    402137 <urlencode+0x24>
  402164:	80 fa 2e             	cmp    $0x2e,%dl
  402167:	74 ce                	je     402137 <urlencode+0x24>
  402169:	80 fa 5f             	cmp    $0x5f,%dl
  40216c:	74 c9                	je     402137 <urlencode+0x24>
  40216e:	8d 42 d0             	lea    -0x30(%rdx),%eax
  402171:	3c 09                	cmp    $0x9,%al
  402173:	76 c2                	jbe    402137 <urlencode+0x24>
  402175:	8d 42 bf             	lea    -0x41(%rdx),%eax
  402178:	3c 19                	cmp    $0x19,%al
  40217a:	76 bb                	jbe    402137 <urlencode+0x24>
  40217c:	8d 42 9f             	lea    -0x61(%rdx),%eax
  40217f:	3c 19                	cmp    $0x19,%al
  402181:	76 b4                	jbe    402137 <urlencode+0x24>
  402183:	80 fa 20             	cmp    $0x20,%dl
  402186:	74 4c                	je     4021d4 <urlencode+0xc1>
  402188:	8d 42 e0             	lea    -0x20(%rdx),%eax
  40218b:	3c 5f                	cmp    $0x5f,%al
  40218d:	0f 96 c1             	setbe  %cl
  402190:	80 fa 09             	cmp    $0x9,%dl
  402193:	0f 94 c0             	sete   %al
  402196:	08 c1                	or     %al,%cl
  402198:	74 47                	je     4021e1 <urlencode+0xce>
  40219a:	0f b6 d2             	movzbl %dl,%edx
  40219d:	48 8d 7c 24 08       	lea    0x8(%rsp),%rdi
  4021a2:	48 8d 35 cf 13 00 00 	lea    0x13cf(%rip),%rsi        # 403578 <trans_char+0xa8>
  4021a9:	b8 00 00 00 00       	mov    $0x0,%eax
  4021ae:	e8 ed eb ff ff       	callq  400da0 <sprintf@plt>
  4021b3:	0f b6 44 24 08       	movzbl 0x8(%rsp),%eax
  4021b8:	88 45 00             	mov    %al,0x0(%rbp)
  4021bb:	0f b6 44 24 09       	movzbl 0x9(%rsp),%eax
  4021c0:	88 45 01             	mov    %al,0x1(%rbp)
  4021c3:	0f b6 44 24 0a       	movzbl 0xa(%rsp),%eax
  4021c8:	88 45 02             	mov    %al,0x2(%rbp)
  4021cb:	48 8d 6d 03          	lea    0x3(%rbp),%rbp
  4021cf:	e9 6a ff ff ff       	jmpq   40213e <urlencode+0x2b>
  4021d4:	c6 45 00 2b          	movb   $0x2b,0x0(%rbp)
  4021d8:	48 8d 6d 01          	lea    0x1(%rbp),%rbp
  4021dc:	e9 5d ff ff ff       	jmpq   40213e <urlencode+0x2b>
  4021e1:	b8 ff ff ff ff       	mov    $0xffffffff,%eax
  4021e6:	48 83 c4 10          	add    $0x10,%rsp
  4021ea:	5b                   	pop    %rbx
  4021eb:	5d                   	pop    %rbp
  4021ec:	41 5c                	pop    %r12
  4021ee:	c3                   	retq   

00000000004021ef <rio_writen>:
  4021ef:	41 55                	push   %r13
  4021f1:	41 54                	push   %r12
  4021f3:	55                   	push   %rbp
  4021f4:	53                   	push   %rbx
  4021f5:	48 83 ec 08          	sub    $0x8,%rsp
  4021f9:	41 89 fc             	mov    %edi,%r12d
  4021fc:	49 89 d5             	mov    %rdx,%r13
  4021ff:	48 89 f5             	mov    %rsi,%rbp
  402202:	48 89 d3             	mov    %rdx,%rbx
  402205:	eb 06                	jmp    40220d <rio_writen+0x1e>
  402207:	48 29 c3             	sub    %rax,%rbx
  40220a:	48 01 c5             	add    %rax,%rbp
  40220d:	48 85 db             	test   %rbx,%rbx
  402210:	74 24                	je     402236 <rio_writen+0x47>
  402212:	48 89 da             	mov    %rbx,%rdx
  402215:	48 89 ee             	mov    %rbp,%rsi
  402218:	44 89 e7             	mov    %r12d,%edi
  40221b:	e8 20 ea ff ff       	callq  400c40 <write@plt>
  402220:	48 85 c0             	test   %rax,%rax
  402223:	7f e2                	jg     402207 <rio_writen+0x18>
  402225:	e8 c6 e9 ff ff       	callq  400bf0 <__errno_location@plt>
  40222a:	83 38 04             	cmpl   $0x4,(%rax)
  40222d:	75 15                	jne    402244 <rio_writen+0x55>
  40222f:	b8 00 00 00 00       	mov    $0x0,%eax
  402234:	eb d1                	jmp    402207 <rio_writen+0x18>
  402236:	4c 89 e8             	mov    %r13,%rax
  402239:	48 83 c4 08          	add    $0x8,%rsp
  40223d:	5b                   	pop    %rbx
  40223e:	5d                   	pop    %rbp
  40223f:	41 5c                	pop    %r12
  402241:	41 5d                	pop    %r13
  402243:	c3                   	retq   
  402244:	48 c7 c0 ff ff ff ff 	mov    $0xffffffffffffffff,%rax
  40224b:	eb ec                	jmp    402239 <rio_writen+0x4a>

000000000040224d <rio_read>:
  40224d:	41 55                	push   %r13
  40224f:	41 54                	push   %r12
  402251:	55                   	push   %rbp
  402252:	53                   	push   %rbx
  402253:	48 83 ec 08          	sub    $0x8,%rsp
  402257:	48 89 fb             	mov    %rdi,%rbx
  40225a:	49 89 f5             	mov    %rsi,%r13
  40225d:	49 89 d4             	mov    %rdx,%r12
  402260:	eb 0a                	jmp    40226c <rio_read+0x1f>
  402262:	e8 89 e9 ff ff       	callq  400bf0 <__errno_location@plt>
  402267:	83 38 04             	cmpl   $0x4,(%rax)
  40226a:	75 5c                	jne    4022c8 <rio_read+0x7b>
  40226c:	8b 6b 04             	mov    0x4(%rbx),%ebp
  40226f:	85 ed                	test   %ebp,%ebp
  402271:	7f 24                	jg     402297 <rio_read+0x4a>
  402273:	48 8d 6b 10          	lea    0x10(%rbx),%rbp
  402277:	ba 00 20 00 00       	mov    $0x2000,%edx
  40227c:	48 89 ee             	mov    %rbp,%rsi
  40227f:	8b 3b                	mov    (%rbx),%edi
  402281:	e8 1a ea ff ff       	callq  400ca0 <read@plt>
  402286:	89 43 04             	mov    %eax,0x4(%rbx)
  402289:	85 c0                	test   %eax,%eax
  40228b:	78 d5                	js     402262 <rio_read+0x15>
  40228d:	85 c0                	test   %eax,%eax
  40228f:	74 40                	je     4022d1 <rio_read+0x84>
  402291:	48 89 6b 08          	mov    %rbp,0x8(%rbx)
  402295:	eb d5                	jmp    40226c <rio_read+0x1f>
  402297:	89 e8                	mov    %ebp,%eax
  402299:	49 39 c4             	cmp    %rax,%r12
  40229c:	77 03                	ja     4022a1 <rio_read+0x54>
  40229e:	44 89 e5             	mov    %r12d,%ebp
  4022a1:	4c 63 e5             	movslq %ebp,%r12
  4022a4:	48 8b 73 08          	mov    0x8(%rbx),%rsi
  4022a8:	4c 89 e2             	mov    %r12,%rdx
  4022ab:	4c 89 ef             	mov    %r13,%rdi
  4022ae:	e8 3d ea ff ff       	callq  400cf0 <memcpy@plt>
  4022b3:	4c 01 63 08          	add    %r12,0x8(%rbx)
  4022b7:	29 6b 04             	sub    %ebp,0x4(%rbx)
  4022ba:	4c 89 e0             	mov    %r12,%rax
  4022bd:	48 83 c4 08          	add    $0x8,%rsp
  4022c1:	5b                   	pop    %rbx
  4022c2:	5d                   	pop    %rbp
  4022c3:	41 5c                	pop    %r12
  4022c5:	41 5d                	pop    %r13
  4022c7:	c3                   	retq   
  4022c8:	48 c7 c0 ff ff ff ff 	mov    $0xffffffffffffffff,%rax
  4022cf:	eb ec                	jmp    4022bd <rio_read+0x70>
  4022d1:	b8 00 00 00 00       	mov    $0x0,%eax
  4022d6:	eb e5                	jmp    4022bd <rio_read+0x70>

00000000004022d8 <rio_readlineb>:
  4022d8:	41 55                	push   %r13
  4022da:	41 54                	push   %r12
  4022dc:	55                   	push   %rbp
  4022dd:	53                   	push   %rbx
  4022de:	48 83 ec 18          	sub    $0x18,%rsp
  4022e2:	49 89 fd             	mov    %rdi,%r13
  4022e5:	49 89 d4             	mov    %rdx,%r12
  4022e8:	48 89 f5             	mov    %rsi,%rbp
  4022eb:	bb 01 00 00 00       	mov    $0x1,%ebx
  4022f0:	4c 39 e3             	cmp    %r12,%rbx
  4022f3:	73 47                	jae    40233c <rio_readlineb+0x64>
  4022f5:	48 8d 74 24 0f       	lea    0xf(%rsp),%rsi
  4022fa:	ba 01 00 00 00       	mov    $0x1,%edx
  4022ff:	4c 89 ef             	mov    %r13,%rdi
  402302:	e8 46 ff ff ff       	callq  40224d <rio_read>
  402307:	83 f8 01             	cmp    $0x1,%eax
  40230a:	75 1c                	jne    402328 <rio_readlineb+0x50>
  40230c:	48 8d 45 01          	lea    0x1(%rbp),%rax
  402310:	0f b6 54 24 0f       	movzbl 0xf(%rsp),%edx
  402315:	88 55 00             	mov    %dl,0x0(%rbp)
  402318:	80 7c 24 0f 0a       	cmpb   $0xa,0xf(%rsp)
  40231d:	74 1a                	je     402339 <rio_readlineb+0x61>
  40231f:	48 83 c3 01          	add    $0x1,%rbx
  402323:	48 89 c5             	mov    %rax,%rbp
  402326:	eb c8                	jmp    4022f0 <rio_readlineb+0x18>
  402328:	85 c0                	test   %eax,%eax
  40232a:	75 22                	jne    40234e <rio_readlineb+0x76>
  40232c:	48 83 fb 01          	cmp    $0x1,%rbx
  402330:	75 0a                	jne    40233c <rio_readlineb+0x64>
  402332:	b8 00 00 00 00       	mov    $0x0,%eax
  402337:	eb 0a                	jmp    402343 <rio_readlineb+0x6b>
  402339:	48 89 c5             	mov    %rax,%rbp
  40233c:	c6 45 00 00          	movb   $0x0,0x0(%rbp)
  402340:	48 89 d8             	mov    %rbx,%rax
  402343:	48 83 c4 18          	add    $0x18,%rsp
  402347:	5b                   	pop    %rbx
  402348:	5d                   	pop    %rbp
  402349:	41 5c                	pop    %r12
  40234b:	41 5d                	pop    %r13
  40234d:	c3                   	retq   
  40234e:	48 c7 c0 ff ff ff ff 	mov    $0xffffffffffffffff,%rax
  402355:	eb ec                	jmp    402343 <rio_readlineb+0x6b>

0000000000402357 <submitr>:
  402357:	41 57                	push   %r15
  402359:	41 56                	push   %r14
  40235b:	41 55                	push   %r13
  40235d:	41 54                	push   %r12
  40235f:	55                   	push   %rbp
  402360:	53                   	push   %rbx
  402361:	48 81 ec 58 a0 00 00 	sub    $0xa058,%rsp
  402368:	49 89 fd             	mov    %rdi,%r13
  40236b:	89 74 24 14          	mov    %esi,0x14(%rsp)
  40236f:	49 89 d7             	mov    %rdx,%r15
  402372:	48 89 4c 24 08       	mov    %rcx,0x8(%rsp)
  402377:	4c 89 44 24 18       	mov    %r8,0x18(%rsp)
  40237c:	4d 89 ce             	mov    %r9,%r14
  40237f:	48 8b 9c 24 90 a0 00 	mov    0xa090(%rsp),%rbx
  402386:	00 
  402387:	c7 84 24 2c 20 00 00 	movl   $0x0,0x202c(%rsp)
  40238e:	00 00 00 00 
  402392:	ba 00 00 00 00       	mov    $0x0,%edx
  402397:	be 01 00 00 00       	mov    $0x1,%esi
  40239c:	bf 02 00 00 00       	mov    $0x2,%edi
  4023a1:	e8 2a ea ff ff       	callq  400dd0 <socket@plt>
  4023a6:	85 c0                	test   %eax,%eax
  4023a8:	0f 88 ca 01 00 00    	js     402578 <submitr+0x221>
  4023ae:	89 c5                	mov    %eax,%ebp
  4023b0:	4c 89 ef             	mov    %r13,%rdi
  4023b3:	e8 08 e9 ff ff       	callq  400cc0 <gethostbyname@plt>
  4023b8:	48 85 c0             	test   %rax,%rax
  4023bb:	0f 84 05 02 00 00    	je     4025c6 <submitr+0x26f>
  4023c1:	4c 8d a4 24 40 a0 00 	lea    0xa040(%rsp),%r12
  4023c8:	00 
  4023c9:	48 c7 84 24 40 a0 00 	movq   $0x0,0xa040(%rsp)
  4023d0:	00 00 00 00 00 
  4023d5:	48 c7 84 24 48 a0 00 	movq   $0x0,0xa048(%rsp)
  4023dc:	00 00 00 00 00 
  4023e1:	66 c7 84 24 40 a0 00 	movw   $0x2,0xa040(%rsp)
  4023e8:	00 02 00 
  4023eb:	48 8b 48 18          	mov    0x18(%rax),%rcx
  4023ef:	48 63 50 14          	movslq 0x14(%rax),%rdx
  4023f3:	48 8d b4 24 44 a0 00 	lea    0xa044(%rsp),%rsi
  4023fa:	00 
  4023fb:	48 8b 39             	mov    (%rcx),%rdi
  4023fe:	e8 4d e9 ff ff       	callq  400d50 <bcopy@plt>
  402403:	0f b7 44 24 14       	movzwl 0x14(%rsp),%eax
  402408:	66 c1 c8 08          	ror    $0x8,%ax
  40240c:	66 89 84 24 42 a0 00 	mov    %ax,0xa042(%rsp)
  402413:	00 
  402414:	ba 10 00 00 00       	mov    $0x10,%edx
  402419:	4c 89 e6             	mov    %r12,%rsi
  40241c:	89 ef                	mov    %ebp,%edi
  40241e:	e8 9d e9 ff ff       	callq  400dc0 <connect@plt>
  402423:	85 c0                	test   %eax,%eax
  402425:	0f 88 02 02 00 00    	js     40262d <submitr+0x2d6>
  40242b:	48 c7 c6 ff ff ff ff 	mov    $0xffffffffffffffff,%rsi
  402432:	b8 00 00 00 00       	mov    $0x0,%eax
  402437:	48 89 f1             	mov    %rsi,%rcx
  40243a:	4c 89 f7             	mov    %r14,%rdi
  40243d:	f2 ae                	repnz scas %es:(%rdi),%al
  40243f:	48 f7 d1             	not    %rcx
  402442:	48 89 ca             	mov    %rcx,%rdx
  402445:	48 89 f1             	mov    %rsi,%rcx
  402448:	4c 89 ff             	mov    %r15,%rdi
  40244b:	f2 ae                	repnz scas %es:(%rdi),%al
  40244d:	48 f7 d1             	not    %rcx
  402450:	49 89 c8             	mov    %rcx,%r8
  402453:	48 89 f1             	mov    %rsi,%rcx
  402456:	48 8b 7c 24 08       	mov    0x8(%rsp),%rdi
  40245b:	f2 ae                	repnz scas %es:(%rdi),%al
  40245d:	48 f7 d1             	not    %rcx
  402460:	4d 8d 44 08 fe       	lea    -0x2(%r8,%rcx,1),%r8
  402465:	48 89 f1             	mov    %rsi,%rcx
  402468:	48 8b 7c 24 18       	mov    0x18(%rsp),%rdi
  40246d:	f2 ae                	repnz scas %es:(%rdi),%al
  40246f:	48 89 c8             	mov    %rcx,%rax
  402472:	48 f7 d0             	not    %rax
  402475:	49 8d 4c 00 ff       	lea    -0x1(%r8,%rax,1),%rcx
  40247a:	48 8d 44 52 fd       	lea    -0x3(%rdx,%rdx,2),%rax
  40247f:	48 8d 84 01 80 00 00 	lea    0x80(%rcx,%rax,1),%rax
  402486:	00 
  402487:	48 3d 00 20 00 00    	cmp    $0x2000,%rax
  40248d:	0f 87 f3 01 00 00    	ja     402686 <submitr+0x32f>
  402493:	48 8d b4 24 30 40 00 	lea    0x4030(%rsp),%rsi
  40249a:	00 
  40249b:	b9 00 04 00 00       	mov    $0x400,%ecx
  4024a0:	b8 00 00 00 00       	mov    $0x0,%eax
  4024a5:	48 89 f7             	mov    %rsi,%rdi
  4024a8:	f3 48 ab             	rep stos %rax,%es:(%rdi)
  4024ab:	4c 89 f7             	mov    %r14,%rdi
  4024ae:	e8 60 fc ff ff       	callq  402113 <urlencode>
  4024b3:	85 c0                	test   %eax,%eax
  4024b5:	0f 88 3d 02 00 00    	js     4026f8 <submitr+0x3a1>
  4024bb:	4c 8d a4 24 30 60 00 	lea    0x6030(%rsp),%r12
  4024c2:	00 
  4024c3:	4d 89 e9             	mov    %r13,%r9
  4024c6:	4c 8d 84 24 30 40 00 	lea    0x4030(%rsp),%r8
  4024cd:	00 
  4024ce:	4c 89 f9             	mov    %r15,%rcx
  4024d1:	48 8b 54 24 08       	mov    0x8(%rsp),%rdx
  4024d6:	48 8d 35 2b 10 00 00 	lea    0x102b(%rip),%rsi        # 403508 <trans_char+0x38>
  4024dd:	4c 89 e7             	mov    %r12,%rdi
  4024e0:	b8 00 00 00 00       	mov    $0x0,%eax
  4024e5:	e8 b6 e8 ff ff       	callq  400da0 <sprintf@plt>
  4024ea:	b8 00 00 00 00       	mov    $0x0,%eax
  4024ef:	48 c7 c1 ff ff ff ff 	mov    $0xffffffffffffffff,%rcx
  4024f6:	4c 89 e7             	mov    %r12,%rdi
  4024f9:	f2 ae                	repnz scas %es:(%rdi),%al
  4024fb:	48 f7 d1             	not    %rcx
  4024fe:	48 8d 51 ff          	lea    -0x1(%rcx),%rdx
  402502:	4c 89 e6             	mov    %r12,%rsi
  402505:	89 ef                	mov    %ebp,%edi
  402507:	e8 e3 fc ff ff       	callq  4021ef <rio_writen>
  40250c:	48 85 c0             	test   %rax,%rax
  40250f:	0f 88 6d 02 00 00    	js     402782 <submitr+0x42b>
  402515:	4c 8d a4 24 30 80 00 	lea    0x8030(%rsp),%r12
  40251c:	00 
  40251d:	89 ee                	mov    %ebp,%esi
  40251f:	4c 89 e7             	mov    %r12,%rdi
  402522:	e8 af fb ff ff       	callq  4020d6 <rio_readinitb>
  402527:	48 8d b4 24 30 60 00 	lea    0x6030(%rsp),%rsi
  40252e:	00 
  40252f:	ba 00 20 00 00       	mov    $0x2000,%edx
  402534:	4c 89 e7             	mov    %r12,%rdi
  402537:	e8 9c fd ff ff       	callq  4022d8 <rio_readlineb>
  40253c:	48 85 c0             	test   %rax,%rax
  40253f:	0f 8e ab 02 00 00    	jle    4027f0 <submitr+0x499>
  402545:	48 8d 8c 24 2c 20 00 	lea    0x202c(%rsp),%rcx
  40254c:	00 
  40254d:	48 8d 94 24 30 20 00 	lea    0x2030(%rsp),%rdx
  402554:	00 
  402555:	48 8d bc 24 30 60 00 	lea    0x6030(%rsp),%rdi
  40255c:	00 
  40255d:	4c 8d 44 24 20       	lea    0x20(%rsp),%r8
  402562:	48 8d 35 16 10 00 00 	lea    0x1016(%rip),%rsi        # 40357f <trans_char+0xaf>
  402569:	b8 00 00 00 00       	mov    $0x0,%eax
  40256e:	e8 bd e7 ff ff       	callq  400d30 <__isoc99_sscanf@plt>
  402573:	e9 9f 03 00 00       	jmpq   402917 <submitr+0x5c0>
  402578:	48 b8 45 72 72 6f 72 	movabs $0x43203a726f727245,%rax
  40257f:	3a 20 43 
  402582:	48 89 03             	mov    %rax,(%rbx)
  402585:	48 b8 6c 69 65 6e 74 	movabs $0x6e7520746e65696c,%rax
  40258c:	20 75 6e 
  40258f:	48 89 43 08          	mov    %rax,0x8(%rbx)
  402593:	48 b8 61 62 6c 65 20 	movabs $0x206f7420656c6261,%rax
  40259a:	74 6f 20 
  40259d:	48 89 43 10          	mov    %rax,0x10(%rbx)
  4025a1:	48 b8 63 72 65 61 74 	movabs $0x7320657461657263,%rax
  4025a8:	65 20 73 
  4025ab:	48 89 43 18          	mov    %rax,0x18(%rbx)
  4025af:	c7 43 20 6f 63 6b 65 	movl   $0x656b636f,0x20(%rbx)
  4025b6:	66 c7 43 24 74 00    	movw   $0x74,0x24(%rbx)
  4025bc:	b8 ff ff ff ff       	mov    $0xffffffff,%eax
  4025c1:	e9 18 03 00 00       	jmpq   4028de <submitr+0x587>
  4025c6:	48 b8 45 72 72 6f 72 	movabs $0x44203a726f727245,%rax
  4025cd:	3a 20 44 
  4025d0:	48 89 03             	mov    %rax,(%rbx)
  4025d3:	48 b8 4e 53 20 69 73 	movabs $0x6e7520736920534e,%rax
  4025da:	20 75 6e 
  4025dd:	48 89 43 08          	mov    %rax,0x8(%rbx)
  4025e1:	48 b8 61 62 6c 65 20 	movabs $0x206f7420656c6261,%rax
  4025e8:	74 6f 20 
  4025eb:	48 89 43 10          	mov    %rax,0x10(%rbx)
  4025ef:	48 b8 72 65 73 6f 6c 	movabs $0x2065766c6f736572,%rax
  4025f6:	76 65 20 
  4025f9:	48 89 43 18          	mov    %rax,0x18(%rbx)
  4025fd:	48 b8 73 65 72 76 65 	movabs $0x6120726576726573,%rax
  402604:	72 20 61 
  402607:	48 89 43 20          	mov    %rax,0x20(%rbx)
  40260b:	c7 43 28 64 64 72 65 	movl   $0x65726464,0x28(%rbx)
  402612:	66 c7 43 2c 73 73    	movw   $0x7373,0x2c(%rbx)
  402618:	c6 43 2e 00          	movb   $0x0,0x2e(%rbx)
  40261c:	89 ef                	mov    %ebp,%edi
  40261e:	e8 6d e6 ff ff       	callq  400c90 <close@plt>
  402623:	b8 ff ff ff ff       	mov    $0xffffffff,%eax
  402628:	e9 b1 02 00 00       	jmpq   4028de <submitr+0x587>
  40262d:	48 b8 45 72 72 6f 72 	movabs $0x55203a726f727245,%rax
  402634:	3a 20 55 
  402637:	48 89 03             	mov    %rax,(%rbx)
  40263a:	48 b8 6e 61 62 6c 65 	movabs $0x6f7420656c62616e,%rax
  402641:	20 74 6f 
  402644:	48 89 43 08          	mov    %rax,0x8(%rbx)
  402648:	48 b8 20 63 6f 6e 6e 	movabs $0x7463656e6e6f6320,%rax
  40264f:	65 63 74 
  402652:	48 89 43 10          	mov    %rax,0x10(%rbx)
  402656:	48 b8 20 74 6f 20 74 	movabs $0x20656874206f7420,%rax
  40265d:	68 65 20 
  402660:	48 89 43 18          	mov    %rax,0x18(%rbx)
  402664:	c7 43 20 73 65 72 76 	movl   $0x76726573,0x20(%rbx)
  40266b:	66 c7 43 24 65 72    	movw   $0x7265,0x24(%rbx)
  402671:	c6 43 26 00          	movb   $0x0,0x26(%rbx)
  402675:	89 ef                	mov    %ebp,%edi
  402677:	e8 14 e6 ff ff       	callq  400c90 <close@plt>
  40267c:	b8 ff ff ff ff       	mov    $0xffffffff,%eax
  402681:	e9 58 02 00 00       	jmpq   4028de <submitr+0x587>
  402686:	48 b8 45 72 72 6f 72 	movabs $0x52203a726f727245,%rax
  40268d:	3a 20 52 
  402690:	48 89 03             	mov    %rax,(%rbx)
  402693:	48 b8 65 73 75 6c 74 	movabs $0x747320746c757365,%rax
  40269a:	20 73 74 
  40269d:	48 89 43 08          	mov    %rax,0x8(%rbx)
  4026a1:	48 b8 72 69 6e 67 20 	movabs $0x6f6f7420676e6972,%rax
  4026a8:	74 6f 6f 
  4026ab:	48 89 43 10          	mov    %rax,0x10(%rbx)
  4026af:	48 b8 20 6c 61 72 67 	movabs $0x202e656772616c20,%rax
  4026b6:	65 2e 20 
  4026b9:	48 89 43 18          	mov    %rax,0x18(%rbx)
  4026bd:	48 b8 49 6e 63 72 65 	movabs $0x6573616572636e49,%rax
  4026c4:	61 73 65 
  4026c7:	48 89 43 20          	mov    %rax,0x20(%rbx)
  4026cb:	48 b8 20 53 55 42 4d 	movabs $0x5254494d42555320,%rax
  4026d2:	49 54 52 
  4026d5:	48 89 43 28          	mov    %rax,0x28(%rbx)
  4026d9:	48 b8 5f 4d 41 58 42 	movabs $0x46554258414d5f,%rax
  4026e0:	55 46 00 
  4026e3:	48 89 43 30          	mov    %rax,0x30(%rbx)
  4026e7:	89 ef                	mov    %ebp,%edi
  4026e9:	e8 a2 e5 ff ff       	callq  400c90 <close@plt>
  4026ee:	b8 ff ff ff ff       	mov    $0xffffffff,%eax
  4026f3:	e9 e6 01 00 00       	jmpq   4028de <submitr+0x587>
  4026f8:	48 b8 45 72 72 6f 72 	movabs $0x52203a726f727245,%rax
  4026ff:	3a 20 52 
  402702:	48 89 03             	mov    %rax,(%rbx)
  402705:	48 b8 65 73 75 6c 74 	movabs $0x747320746c757365,%rax
  40270c:	20 73 74 
  40270f:	48 89 43 08          	mov    %rax,0x8(%rbx)
  402713:	48 b8 72 69 6e 67 20 	movabs $0x6e6f6320676e6972,%rax
  40271a:	63 6f 6e 
  40271d:	48 89 43 10          	mov    %rax,0x10(%rbx)
  402721:	48 b8 74 61 69 6e 73 	movabs $0x6e6120736e696174,%rax
  402728:	20 61 6e 
  40272b:	48 89 43 18          	mov    %rax,0x18(%rbx)
  40272f:	48 b8 20 69 6c 6c 65 	movabs $0x6c6167656c6c6920,%rax
  402736:	67 61 6c 
  402739:	48 89 43 20          	mov    %rax,0x20(%rbx)
  40273d:	48 b8 20 6f 72 20 75 	movabs $0x72706e7520726f20,%rax
  402744:	6e 70 72 
  402747:	48 89 43 28          	mov    %rax,0x28(%rbx)
  40274b:	48 b8 69 6e 74 61 62 	movabs $0x20656c6261746e69,%rax
  402752:	6c 65 20 
  402755:	48 89 43 30          	mov    %rax,0x30(%rbx)
  402759:	48 b8 63 68 61 72 61 	movabs $0x6574636172616863,%rax
  402760:	63 74 65 
  402763:	48 89 43 38          	mov    %rax,0x38(%rbx)
  402767:	66 c7 43 40 72 2e    	movw   $0x2e72,0x40(%rbx)
  40276d:	c6 43 42 00          	movb   $0x0,0x42(%rbx)
  402771:	89 ef                	mov    %ebp,%edi
  402773:	e8 18 e5 ff ff       	callq  400c90 <close@plt>
  402778:	b8 ff ff ff ff       	mov    $0xffffffff,%eax
  40277d:	e9 5c 01 00 00       	jmpq   4028de <submitr+0x587>
  402782:	48 b8 45 72 72 6f 72 	movabs $0x43203a726f727245,%rax
  402789:	3a 20 43 
  40278c:	48 89 03             	mov    %rax,(%rbx)
  40278f:	48 b8 6c 69 65 6e 74 	movabs $0x6e7520746e65696c,%rax
  402796:	20 75 6e 
  402799:	48 89 43 08          	mov    %rax,0x8(%rbx)
  40279d:	48 b8 61 62 6c 65 20 	movabs $0x206f7420656c6261,%rax
  4027a4:	74 6f 20 
  4027a7:	48 89 43 10          	mov    %rax,0x10(%rbx)
  4027ab:	48 b8 77 72 69 74 65 	movabs $0x6f74206574697277,%rax
  4027b2:	20 74 6f 
  4027b5:	48 89 43 18          	mov    %rax,0x18(%rbx)
  4027b9:	48 b8 20 74 68 65 20 	movabs $0x7365722065687420,%rax
  4027c0:	72 65 73 
  4027c3:	48 89 43 20          	mov    %rax,0x20(%rbx)
  4027c7:	48 b8 75 6c 74 20 73 	movabs $0x7672657320746c75,%rax
  4027ce:	65 72 76 
  4027d1:	48 89 43 28          	mov    %rax,0x28(%rbx)
  4027d5:	66 c7 43 30 65 72    	movw   $0x7265,0x30(%rbx)
  4027db:	c6 43 32 00          	movb   $0x0,0x32(%rbx)
  4027df:	89 ef                	mov    %ebp,%edi
  4027e1:	e8 aa e4 ff ff       	callq  400c90 <close@plt>
  4027e6:	b8 ff ff ff ff       	mov    $0xffffffff,%eax
  4027eb:	e9 ee 00 00 00       	jmpq   4028de <submitr+0x587>
  4027f0:	48 b8 45 72 72 6f 72 	movabs $0x43203a726f727245,%rax
  4027f7:	3a 20 43 
  4027fa:	48 89 03             	mov    %rax,(%rbx)
  4027fd:	48 b8 6c 69 65 6e 74 	movabs $0x6e7520746e65696c,%rax
  402804:	20 75 6e 
  402807:	48 89 43 08          	mov    %rax,0x8(%rbx)
  40280b:	48 b8 61 62 6c 65 20 	movabs $0x206f7420656c6261,%rax
  402812:	74 6f 20 
  402815:	48 89 43 10          	mov    %rax,0x10(%rbx)
  402819:	48 b8 72 65 61 64 20 	movabs $0x7269662064616572,%rax
  402820:	66 69 72 
  402823:	48 89 43 18          	mov    %rax,0x18(%rbx)
  402827:	48 b8 73 74 20 68 65 	movabs $0x6564616568207473,%rax
  40282e:	61 64 65 
  402831:	48 89 43 20          	mov    %rax,0x20(%rbx)
  402835:	48 b8 72 20 66 72 6f 	movabs $0x72206d6f72662072,%rax
  40283c:	6d 20 72 
  40283f:	48 89 43 28          	mov    %rax,0x28(%rbx)
  402843:	48 b8 65 73 75 6c 74 	movabs $0x657320746c757365,%rax
  40284a:	20 73 65 
  40284d:	48 89 43 30          	mov    %rax,0x30(%rbx)
  402851:	c7 43 38 72 76 65 72 	movl   $0x72657672,0x38(%rbx)
  402858:	c6 43 3c 00          	movb   $0x0,0x3c(%rbx)
  40285c:	89 ef                	mov    %ebp,%edi
  40285e:	e8 2d e4 ff ff       	callq  400c90 <close@plt>
  402863:	b8 ff ff ff ff       	mov    $0xffffffff,%eax
  402868:	eb 74                	jmp    4028de <submitr+0x587>
  40286a:	48 b8 45 72 72 6f 72 	movabs $0x43203a726f727245,%rax
  402871:	3a 20 43 
  402874:	48 89 03             	mov    %rax,(%rbx)
  402877:	48 b8 6c 69 65 6e 74 	movabs $0x6e7520746e65696c,%rax
  40287e:	20 75 6e 
  402881:	48 89 43 08          	mov    %rax,0x8(%rbx)
  402885:	48 b8 61 62 6c 65 20 	movabs $0x206f7420656c6261,%rax
  40288c:	74 6f 20 
  40288f:	48 89 43 10          	mov    %rax,0x10(%rbx)
  402893:	48 b8 72 65 61 64 20 	movabs $0x6165682064616572,%rax
  40289a:	68 65 61 
  40289d:	48 89 43 18          	mov    %rax,0x18(%rbx)
  4028a1:	48 b8 64 65 72 73 20 	movabs $0x6f72662073726564,%rax
  4028a8:	66 72 6f 
  4028ab:	48 89 43 20          	mov    %rax,0x20(%rbx)
  4028af:	48 b8 6d 20 74 68 65 	movabs $0x657220656874206d,%rax
  4028b6:	20 72 65 
  4028b9:	48 89 43 28          	mov    %rax,0x28(%rbx)
  4028bd:	48 b8 73 75 6c 74 20 	movabs $0x72657320746c7573,%rax
  4028c4:	73 65 72 
  4028c7:	48 89 43 30          	mov    %rax,0x30(%rbx)
  4028cb:	c7 43 38 76 65 72 00 	movl   $0x726576,0x38(%rbx)
  4028d2:	89 ef                	mov    %ebp,%edi
  4028d4:	e8 b7 e3 ff ff       	callq  400c90 <close@plt>
  4028d9:	b8 ff ff ff ff       	mov    $0xffffffff,%eax
  4028de:	48 81 c4 58 a0 00 00 	add    $0xa058,%rsp
  4028e5:	5b                   	pop    %rbx
  4028e6:	5d                   	pop    %rbp
  4028e7:	41 5c                	pop    %r12
  4028e9:	41 5d                	pop    %r13
  4028eb:	41 5e                	pop    %r14
  4028ed:	41 5f                	pop    %r15
  4028ef:	c3                   	retq   
  4028f0:	85 c0                	test   %eax,%eax
  4028f2:	74 51                	je     402945 <submitr+0x5ee>
  4028f4:	48 8d b4 24 30 60 00 	lea    0x6030(%rsp),%rsi
  4028fb:	00 
  4028fc:	48 8d bc 24 30 80 00 	lea    0x8030(%rsp),%rdi
  402903:	00 
  402904:	ba 00 20 00 00       	mov    $0x2000,%edx
  402909:	e8 ca f9 ff ff       	callq  4022d8 <rio_readlineb>
  40290e:	48 85 c0             	test   %rax,%rax
  402911:	0f 8e 53 ff ff ff    	jle    40286a <submitr+0x513>
  402917:	0f b6 94 24 30 60 00 	movzbl 0x6030(%rsp),%edx
  40291e:	00 
  40291f:	b8 0d 00 00 00       	mov    $0xd,%eax
  402924:	29 d0                	sub    %edx,%eax
  402926:	75 c8                	jne    4028f0 <submitr+0x599>
  402928:	0f b6 94 24 31 60 00 	movzbl 0x6031(%rsp),%edx
  40292f:	00 
  402930:	b8 0a 00 00 00       	mov    $0xa,%eax
  402935:	29 d0                	sub    %edx,%eax
  402937:	75 b7                	jne    4028f0 <submitr+0x599>
  402939:	0f b6 84 24 32 60 00 	movzbl 0x6032(%rsp),%eax
  402940:	00 
  402941:	f7 d8                	neg    %eax
  402943:	eb ab                	jmp    4028f0 <submitr+0x599>
  402945:	48 8d b4 24 30 60 00 	lea    0x6030(%rsp),%rsi
  40294c:	00 
  40294d:	48 8d bc 24 30 80 00 	lea    0x8030(%rsp),%rdi
  402954:	00 
  402955:	ba 00 20 00 00       	mov    $0x2000,%edx
  40295a:	e8 79 f9 ff ff       	callq  4022d8 <rio_readlineb>
  40295f:	48 85 c0             	test   %rax,%rax
  402962:	7e 67                	jle    4029cb <submitr+0x674>
  402964:	8b 94 24 2c 20 00 00 	mov    0x202c(%rsp),%edx
  40296b:	81 fa c8 00 00 00    	cmp    $0xc8,%edx
  402971:	0f 85 d7 00 00 00    	jne    402a4e <submitr+0x6f7>
  402977:	48 8d b4 24 30 60 00 	lea    0x6030(%rsp),%rsi
  40297e:	00 
  40297f:	48 89 df             	mov    %rbx,%rdi
  402982:	e8 99 e2 ff ff       	callq  400c20 <strcpy@plt>
  402987:	89 ef                	mov    %ebp,%edi
  402989:	e8 02 e3 ff ff       	callq  400c90 <close@plt>
  40298e:	0f b6 03             	movzbl (%rbx),%eax
  402991:	ba 4f 00 00 00       	mov    $0x4f,%edx
  402996:	29 c2                	sub    %eax,%edx
  402998:	0f 85 da 00 00 00    	jne    402a78 <submitr+0x721>
  40299e:	0f b6 4b 01          	movzbl 0x1(%rbx),%ecx
  4029a2:	b8 4b 00 00 00       	mov    $0x4b,%eax
  4029a7:	29 c8                	sub    %ecx,%eax
  4029a9:	0f 85 cb 00 00 00    	jne    402a7a <submitr+0x723>
  4029af:	0f b6 4b 02          	movzbl 0x2(%rbx),%ecx
  4029b3:	b8 0a 00 00 00       	mov    $0xa,%eax
  4029b8:	29 c8                	sub    %ecx,%eax
  4029ba:	0f 85 ba 00 00 00    	jne    402a7a <submitr+0x723>
  4029c0:	0f b6 43 03          	movzbl 0x3(%rbx),%eax
  4029c4:	f7 d8                	neg    %eax
  4029c6:	e9 af 00 00 00       	jmpq   402a7a <submitr+0x723>
  4029cb:	48 b8 45 72 72 6f 72 	movabs $0x43203a726f727245,%rax
  4029d2:	3a 20 43 
  4029d5:	48 89 03             	mov    %rax,(%rbx)
  4029d8:	48 b8 6c 69 65 6e 74 	movabs $0x6e7520746e65696c,%rax
  4029df:	20 75 6e 
  4029e2:	48 89 43 08          	mov    %rax,0x8(%rbx)
  4029e6:	48 b8 61 62 6c 65 20 	movabs $0x206f7420656c6261,%rax
  4029ed:	74 6f 20 
  4029f0:	48 89 43 10          	mov    %rax,0x10(%rbx)
  4029f4:	48 b8 72 65 61 64 20 	movabs $0x6174732064616572,%rax
  4029fb:	73 74 61 
  4029fe:	48 89 43 18          	mov    %rax,0x18(%rbx)
  402a02:	48 b8 74 75 73 20 6d 	movabs $0x7373656d20737574,%rax
  402a09:	65 73 73 
  402a0c:	48 89 43 20          	mov    %rax,0x20(%rbx)
  402a10:	48 b8 61 67 65 20 66 	movabs $0x6d6f726620656761,%rax
  402a17:	72 6f 6d 
  402a1a:	48 89 43 28          	mov    %rax,0x28(%rbx)
  402a1e:	48 b8 20 72 65 73 75 	movabs $0x20746c7573657220,%rax
  402a25:	6c 74 20 
  402a28:	48 89 43 30          	mov    %rax,0x30(%rbx)
  402a2c:	c7 43 38 73 65 72 76 	movl   $0x76726573,0x38(%rbx)
  402a33:	66 c7 43 3c 65 72    	movw   $0x7265,0x3c(%rbx)
  402a39:	c6 43 3e 00          	movb   $0x0,0x3e(%rbx)
  402a3d:	89 ef                	mov    %ebp,%edi
  402a3f:	e8 4c e2 ff ff       	callq  400c90 <close@plt>
  402a44:	b8 ff ff ff ff       	mov    $0xffffffff,%eax
  402a49:	e9 90 fe ff ff       	jmpq   4028de <submitr+0x587>
  402a4e:	48 8d 4c 24 20       	lea    0x20(%rsp),%rcx
  402a53:	48 8d 35 ee 0a 00 00 	lea    0xaee(%rip),%rsi        # 403548 <trans_char+0x78>
  402a5a:	48 89 df             	mov    %rbx,%rdi
  402a5d:	b8 00 00 00 00       	mov    $0x0,%eax
  402a62:	e8 39 e3 ff ff       	callq  400da0 <sprintf@plt>
  402a67:	89 ef                	mov    %ebp,%edi
  402a69:	e8 22 e2 ff ff       	callq  400c90 <close@plt>
  402a6e:	b8 ff ff ff ff       	mov    $0xffffffff,%eax
  402a73:	e9 66 fe ff ff       	jmpq   4028de <submitr+0x587>
  402a78:	89 d0                	mov    %edx,%eax
  402a7a:	f7 d8                	neg    %eax
  402a7c:	0f 84 5c fe ff ff    	je     4028de <submitr+0x587>
  402a82:	b9 05 00 00 00       	mov    $0x5,%ecx
  402a87:	48 8d 3d 02 0b 00 00 	lea    0xb02(%rip),%rdi        # 403590 <trans_char+0xc0>
  402a8e:	48 89 de             	mov    %rbx,%rsi
  402a91:	f3 a6                	repz cmpsb %es:(%rdi),%ds:(%rsi)
  402a93:	0f 97 c0             	seta   %al
  402a96:	0f 92 c1             	setb   %cl
  402a99:	29 c8                	sub    %ecx,%eax
  402a9b:	0f be c0             	movsbl %al,%eax
  402a9e:	85 c0                	test   %eax,%eax
  402aa0:	0f 84 38 fe ff ff    	je     4028de <submitr+0x587>
  402aa6:	85 d2                	test   %edx,%edx
  402aa8:	75 13                	jne    402abd <submitr+0x766>
  402aaa:	0f b6 43 01          	movzbl 0x1(%rbx),%eax
  402aae:	ba 4b 00 00 00       	mov    $0x4b,%edx
  402ab3:	29 c2                	sub    %eax,%edx
  402ab5:	75 06                	jne    402abd <submitr+0x766>
  402ab7:	0f b6 53 02          	movzbl 0x2(%rbx),%edx
  402abb:	f7 da                	neg    %edx
  402abd:	89 d0                	mov    %edx,%eax
  402abf:	f7 d8                	neg    %eax
  402ac1:	0f 84 17 fe ff ff    	je     4028de <submitr+0x587>
  402ac7:	b8 ff ff ff ff       	mov    $0xffffffff,%eax
  402acc:	e9 0d fe ff ff       	jmpq   4028de <submitr+0x587>

0000000000402ad1 <init_timeout>:
  402ad1:	85 ff                	test   %edi,%edi
  402ad3:	74 20                	je     402af5 <init_timeout+0x24>
  402ad5:	53                   	push   %rbx
  402ad6:	89 fb                	mov    %edi,%ebx
  402ad8:	85 ff                	test   %edi,%edi
  402ada:	78 1b                	js     402af7 <init_timeout+0x26>
  402adc:	48 8d 35 05 f6 ff ff 	lea    -0x9fb(%rip),%rsi        # 4020e8 <sigalrm_handler>
  402ae3:	bf 0e 00 00 00       	mov    $0xe,%edi
  402ae8:	e8 c3 e1 ff ff       	callq  400cb0 <signal@plt>
  402aed:	89 df                	mov    %ebx,%edi
  402aef:	e8 8c e1 ff ff       	callq  400c80 <alarm@plt>
  402af4:	5b                   	pop    %rbx
  402af5:	f3 c3                	repz retq 
  402af7:	bb 00 00 00 00       	mov    $0x0,%ebx
  402afc:	eb de                	jmp    402adc <init_timeout+0xb>

0000000000402afe <init_driver>:
  402afe:	41 54                	push   %r12
  402b00:	55                   	push   %rbp
  402b01:	53                   	push   %rbx
  402b02:	48 83 ec 10          	sub    $0x10,%rsp
  402b06:	48 89 fd             	mov    %rdi,%rbp
  402b09:	be 01 00 00 00       	mov    $0x1,%esi
  402b0e:	bf 0d 00 00 00       	mov    $0xd,%edi
  402b13:	e8 98 e1 ff ff       	callq  400cb0 <signal@plt>
  402b18:	be 01 00 00 00       	mov    $0x1,%esi
  402b1d:	bf 1d 00 00 00       	mov    $0x1d,%edi
  402b22:	e8 89 e1 ff ff       	callq  400cb0 <signal@plt>
  402b27:	be 01 00 00 00       	mov    $0x1,%esi
  402b2c:	bf 1d 00 00 00       	mov    $0x1d,%edi
  402b31:	e8 7a e1 ff ff       	callq  400cb0 <signal@plt>
  402b36:	ba 00 00 00 00       	mov    $0x0,%edx
  402b3b:	be 01 00 00 00       	mov    $0x1,%esi
  402b40:	bf 02 00 00 00       	mov    $0x2,%edi
  402b45:	e8 86 e2 ff ff       	callq  400dd0 <socket@plt>
  402b4a:	85 c0                	test   %eax,%eax
  402b4c:	0f 88 80 00 00 00    	js     402bd2 <init_driver+0xd4>
  402b52:	89 c3                	mov    %eax,%ebx
  402b54:	48 8d 3d 3a 0a 00 00 	lea    0xa3a(%rip),%rdi        # 403595 <trans_char+0xc5>
  402b5b:	e8 60 e1 ff ff       	callq  400cc0 <gethostbyname@plt>
  402b60:	48 85 c0             	test   %rax,%rax
  402b63:	0f 84 b5 00 00 00    	je     402c1e <init_driver+0x120>
  402b69:	48 c7 04 24 00 00 00 	movq   $0x0,(%rsp)
  402b70:	00 
  402b71:	48 c7 44 24 08 00 00 	movq   $0x0,0x8(%rsp)
  402b78:	00 00 
  402b7a:	66 c7 04 24 02 00    	movw   $0x2,(%rsp)
  402b80:	48 8b 48 18          	mov    0x18(%rax),%rcx
  402b84:	48 63 50 14          	movslq 0x14(%rax),%rdx
  402b88:	48 8d 74 24 04       	lea    0x4(%rsp),%rsi
  402b8d:	48 8b 39             	mov    (%rcx),%rdi
  402b90:	e8 bb e1 ff ff       	callq  400d50 <bcopy@plt>
  402b95:	66 c7 44 24 02 3c a4 	movw   $0xa43c,0x2(%rsp)
  402b9c:	ba 10 00 00 00       	mov    $0x10,%edx
  402ba1:	48 89 e6             	mov    %rsp,%rsi
  402ba4:	89 df                	mov    %ebx,%edi
  402ba6:	e8 15 e2 ff ff       	callq  400dc0 <connect@plt>
  402bab:	85 c0                	test   %eax,%eax
  402bad:	0f 88 d3 00 00 00    	js     402c86 <init_driver+0x188>
  402bb3:	89 df                	mov    %ebx,%edi
  402bb5:	e8 d6 e0 ff ff       	callq  400c90 <close@plt>
  402bba:	66 c7 45 00 4f 4b    	movw   $0x4b4f,0x0(%rbp)
  402bc0:	c6 45 02 00          	movb   $0x0,0x2(%rbp)
  402bc4:	b8 00 00 00 00       	mov    $0x0,%eax
  402bc9:	48 83 c4 10          	add    $0x10,%rsp
  402bcd:	5b                   	pop    %rbx
  402bce:	5d                   	pop    %rbp
  402bcf:	41 5c                	pop    %r12
  402bd1:	c3                   	retq   
  402bd2:	48 b8 45 72 72 6f 72 	movabs $0x43203a726f727245,%rax
  402bd9:	3a 20 43 
  402bdc:	48 89 45 00          	mov    %rax,0x0(%rbp)
  402be0:	48 b8 6c 69 65 6e 74 	movabs $0x6e7520746e65696c,%rax
  402be7:	20 75 6e 
  402bea:	48 89 45 08          	mov    %rax,0x8(%rbp)
  402bee:	48 b8 61 62 6c 65 20 	movabs $0x206f7420656c6261,%rax
  402bf5:	74 6f 20 
  402bf8:	48 89 45 10          	mov    %rax,0x10(%rbp)
  402bfc:	48 b8 63 72 65 61 74 	movabs $0x7320657461657263,%rax
  402c03:	65 20 73 
  402c06:	48 89 45 18          	mov    %rax,0x18(%rbp)
  402c0a:	c7 45 20 6f 63 6b 65 	movl   $0x656b636f,0x20(%rbp)
  402c11:	66 c7 45 24 74 00    	movw   $0x74,0x24(%rbp)
  402c17:	b8 ff ff ff ff       	mov    $0xffffffff,%eax
  402c1c:	eb ab                	jmp    402bc9 <init_driver+0xcb>
  402c1e:	48 b8 45 72 72 6f 72 	movabs $0x44203a726f727245,%rax
  402c25:	3a 20 44 
  402c28:	48 89 45 00          	mov    %rax,0x0(%rbp)
  402c2c:	48 b8 4e 53 20 69 73 	movabs $0x6e7520736920534e,%rax
  402c33:	20 75 6e 
  402c36:	48 89 45 08          	mov    %rax,0x8(%rbp)
  402c3a:	48 b8 61 62 6c 65 20 	movabs $0x206f7420656c6261,%rax
  402c41:	74 6f 20 
  402c44:	48 89 45 10          	mov    %rax,0x10(%rbp)
  402c48:	48 b8 72 65 73 6f 6c 	movabs $0x2065766c6f736572,%rax
  402c4f:	76 65 20 
  402c52:	48 89 45 18          	mov    %rax,0x18(%rbp)
  402c56:	48 b8 73 65 72 76 65 	movabs $0x6120726576726573,%rax
  402c5d:	72 20 61 
  402c60:	48 89 45 20          	mov    %rax,0x20(%rbp)
  402c64:	c7 45 28 64 64 72 65 	movl   $0x65726464,0x28(%rbp)
  402c6b:	66 c7 45 2c 73 73    	movw   $0x7373,0x2c(%rbp)
  402c71:	c6 45 2e 00          	movb   $0x0,0x2e(%rbp)
  402c75:	89 df                	mov    %ebx,%edi
  402c77:	e8 14 e0 ff ff       	callq  400c90 <close@plt>
  402c7c:	b8 ff ff ff ff       	mov    $0xffffffff,%eax
  402c81:	e9 43 ff ff ff       	jmpq   402bc9 <init_driver+0xcb>
  402c86:	48 b8 45 72 72 6f 72 	movabs $0x55203a726f727245,%rax
  402c8d:	3a 20 55 
  402c90:	48 89 45 00          	mov    %rax,0x0(%rbp)
  402c94:	48 b8 6e 61 62 6c 65 	movabs $0x6f7420656c62616e,%rax
  402c9b:	20 74 6f 
  402c9e:	48 89 45 08          	mov    %rax,0x8(%rbp)
  402ca2:	48 b8 20 63 6f 6e 6e 	movabs $0x7463656e6e6f6320,%rax
  402ca9:	65 63 74 
  402cac:	48 89 45 10          	mov    %rax,0x10(%rbp)
  402cb0:	48 b8 20 74 6f 20 73 	movabs $0x76726573206f7420,%rax
  402cb7:	65 72 76 
  402cba:	48 89 45 18          	mov    %rax,0x18(%rbp)
  402cbe:	66 c7 45 20 65 72    	movw   $0x7265,0x20(%rbp)
  402cc4:	c6 45 22 00          	movb   $0x0,0x22(%rbp)
  402cc8:	89 df                	mov    %ebx,%edi
  402cca:	e8 c1 df ff ff       	callq  400c90 <close@plt>
  402ccf:	b8 ff ff ff ff       	mov    $0xffffffff,%eax
  402cd4:	e9 f0 fe ff ff       	jmpq   402bc9 <init_driver+0xcb>

0000000000402cd9 <driver_post>:
  402cd9:	53                   	push   %rbx
  402cda:	4c 89 cb             	mov    %r9,%rbx
  402cdd:	45 85 c0             	test   %r8d,%r8d
  402ce0:	75 18                	jne    402cfa <driver_post+0x21>
  402ce2:	48 85 ff             	test   %rdi,%rdi
  402ce5:	74 05                	je     402cec <driver_post+0x13>
  402ce7:	80 3f 00             	cmpb   $0x0,(%rdi)
  402cea:	75 32                	jne    402d1e <driver_post+0x45>
  402cec:	66 c7 03 4f 4b       	movw   $0x4b4f,(%rbx)
  402cf1:	c6 43 02 00          	movb   $0x0,0x2(%rbx)
  402cf5:	44 89 c0             	mov    %r8d,%eax
  402cf8:	5b                   	pop    %rbx
  402cf9:	c3                   	retq   
  402cfa:	48 89 ce             	mov    %rcx,%rsi
  402cfd:	48 8d 3d 9f 08 00 00 	lea    0x89f(%rip),%rdi        # 4035a3 <trans_char+0xd3>
  402d04:	b8 00 00 00 00       	mov    $0x0,%eax
  402d09:	e8 52 df ff ff       	callq  400c60 <printf@plt>
  402d0e:	66 c7 03 4f 4b       	movw   $0x4b4f,(%rbx)
  402d13:	c6 43 02 00          	movb   $0x0,0x2(%rbx)
  402d17:	b8 00 00 00 00       	mov    $0x0,%eax
  402d1c:	eb da                	jmp    402cf8 <driver_post+0x1f>
  402d1e:	48 83 ec 08          	sub    $0x8,%rsp
  402d22:	41 51                	push   %r9
  402d24:	49 89 c9             	mov    %rcx,%r9
  402d27:	49 89 d0             	mov    %rdx,%r8
  402d2a:	48 89 f9             	mov    %rdi,%rcx
  402d2d:	48 89 f2             	mov    %rsi,%rdx
  402d30:	be a4 3c 00 00       	mov    $0x3ca4,%esi
  402d35:	48 8d 3d 59 08 00 00 	lea    0x859(%rip),%rdi        # 403595 <trans_char+0xc5>
  402d3c:	e8 16 f6 ff ff       	callq  402357 <submitr>
  402d41:	48 83 c4 10          	add    $0x10,%rsp
  402d45:	eb b1                	jmp    402cf8 <driver_post+0x1f>

0000000000402d47 <check>:
  402d47:	89 f8                	mov    %edi,%eax
  402d49:	c1 e8 1c             	shr    $0x1c,%eax
  402d4c:	85 c0                	test   %eax,%eax
  402d4e:	74 1d                	je     402d6d <check+0x26>
  402d50:	b9 00 00 00 00       	mov    $0x0,%ecx
  402d55:	83 f9 1f             	cmp    $0x1f,%ecx
  402d58:	7f 0d                	jg     402d67 <check+0x20>
  402d5a:	89 f8                	mov    %edi,%eax
  402d5c:	d3 e8                	shr    %cl,%eax
  402d5e:	3c 0a                	cmp    $0xa,%al
  402d60:	74 11                	je     402d73 <check+0x2c>
  402d62:	83 c1 08             	add    $0x8,%ecx
  402d65:	eb ee                	jmp    402d55 <check+0xe>
  402d67:	b8 01 00 00 00       	mov    $0x1,%eax
  402d6c:	c3                   	retq   
  402d6d:	b8 00 00 00 00       	mov    $0x0,%eax
  402d72:	c3                   	retq   
  402d73:	b8 00 00 00 00       	mov    $0x0,%eax
  402d78:	c3                   	retq   

0000000000402d79 <gencookie>:
  402d79:	53                   	push   %rbx
  402d7a:	83 c7 01             	add    $0x1,%edi
  402d7d:	e8 7e de ff ff       	callq  400c00 <srandom@plt>
  402d82:	e8 89 df ff ff       	callq  400d10 <random@plt>
  402d87:	89 c3                	mov    %eax,%ebx
  402d89:	89 c7                	mov    %eax,%edi
  402d8b:	e8 b7 ff ff ff       	callq  402d47 <check>
  402d90:	85 c0                	test   %eax,%eax
  402d92:	74 ee                	je     402d82 <gencookie+0x9>
  402d94:	89 d8                	mov    %ebx,%eax
  402d96:	5b                   	pop    %rbx
  402d97:	c3                   	retq   
  402d98:	0f 1f 84 00 00 00 00 	nopl   0x0(%rax,%rax,1)
  402d9f:	00 

0000000000402da0 <__libc_csu_init>:
  402da0:	41 57                	push   %r15
  402da2:	41 56                	push   %r14
  402da4:	41 89 ff             	mov    %edi,%r15d
  402da7:	41 55                	push   %r13
  402da9:	41 54                	push   %r12
  402dab:	4c 8d 25 56 20 20 00 	lea    0x202056(%rip),%r12        # 604e08 <__frame_dummy_init_array_entry>
  402db2:	55                   	push   %rbp
  402db3:	48 8d 2d 56 20 20 00 	lea    0x202056(%rip),%rbp        # 604e10 <__init_array_end>
  402dba:	53                   	push   %rbx
  402dbb:	49 89 f6             	mov    %rsi,%r14
  402dbe:	49 89 d5             	mov    %rdx,%r13
  402dc1:	4c 29 e5             	sub    %r12,%rbp
  402dc4:	48 83 ec 08          	sub    $0x8,%rsp
  402dc8:	48 c1 fd 03          	sar    $0x3,%rbp
  402dcc:	e8 df dd ff ff       	callq  400bb0 <_init>
  402dd1:	48 85 ed             	test   %rbp,%rbp
  402dd4:	74 20                	je     402df6 <__libc_csu_init+0x56>
  402dd6:	31 db                	xor    %ebx,%ebx
  402dd8:	0f 1f 84 00 00 00 00 	nopl   0x0(%rax,%rax,1)
  402ddf:	00 
  402de0:	4c 89 ea             	mov    %r13,%rdx
  402de3:	4c 89 f6             	mov    %r14,%rsi
  402de6:	44 89 ff             	mov    %r15d,%edi
  402de9:	41 ff 14 dc          	callq  *(%r12,%rbx,8)
  402ded:	48 83 c3 01          	add    $0x1,%rbx
  402df1:	48 39 dd             	cmp    %rbx,%rbp
  402df4:	75 ea                	jne    402de0 <__libc_csu_init+0x40>
  402df6:	48 83 c4 08          	add    $0x8,%rsp
  402dfa:	5b                   	pop    %rbx
  402dfb:	5d                   	pop    %rbp
  402dfc:	41 5c                	pop    %r12
  402dfe:	41 5d                	pop    %r13
  402e00:	41 5e                	pop    %r14
  402e02:	41 5f                	pop    %r15
  402e04:	c3                   	retq   
  402e05:	90                   	nop
  402e06:	66 2e 0f 1f 84 00 00 	nopw   %cs:0x0(%rax,%rax,1)
  402e0d:	00 00 00 

0000000000402e10 <__libc_csu_fini>:
  402e10:	f3 c3                	repz retq 

Disassembly of section .fini:

0000000000402e14 <_fini>:
  402e14:	48 83 ec 08          	sub    $0x8,%rsp
  402e18:	48 83 c4 08          	add    $0x8,%rsp
  402e1c:	c3                   	retq   
