
ctarget:     file format elf64-x86-64


Disassembly of section .init:

0000000000400bb0 <_init>:
  400bb0:	48 83 ec 08          	sub    $0x8,%rsp
  400bb4:	48 8b 05 3d 34 20 00 	mov    0x20343d(%rip),%rax        # 603ff8 <__gmon_start__>
  400bbb:	48 85 c0             	test   %rax,%rax
  400bbe:	74 02                	je     400bc2 <_init+0x12>
  400bc0:	ff d0                	callq  *%rax
  400bc2:	48 83 c4 08          	add    $0x8,%rsp
  400bc6:	c3                   	retq   

Disassembly of section .plt:

0000000000400bd0 <.plt>:
  400bd0:	ff 35 32 34 20 00    	pushq  0x203432(%rip)        # 604008 <_GLOBAL_OFFSET_TABLE_+0x8>
  400bd6:	ff 25 34 34 20 00    	jmpq   *0x203434(%rip)        # 604010 <_GLOBAL_OFFSET_TABLE_+0x10>
  400bdc:	0f 1f 40 00          	nopl   0x0(%rax)

0000000000400be0 <strcasecmp@plt>:
  400be0:	ff 25 32 34 20 00    	jmpq   *0x203432(%rip)        # 604018 <strcasecmp@GLIBC_2.2.5>
  400be6:	68 00 00 00 00       	pushq  $0x0
  400beb:	e9 e0 ff ff ff       	jmpq   400bd0 <.plt>

0000000000400bf0 <__errno_location@plt>:
  400bf0:	ff 25 2a 34 20 00    	jmpq   *0x20342a(%rip)        # 604020 <__errno_location@GLIBC_2.2.5>
  400bf6:	68 01 00 00 00       	pushq  $0x1
  400bfb:	e9 d0 ff ff ff       	jmpq   400bd0 <.plt>

0000000000400c00 <srandom@plt>:
  400c00:	ff 25 22 34 20 00    	jmpq   *0x203422(%rip)        # 604028 <srandom@GLIBC_2.2.5>
  400c06:	68 02 00 00 00       	pushq  $0x2
  400c0b:	e9 c0 ff ff ff       	jmpq   400bd0 <.plt>

0000000000400c10 <strncmp@plt>:
  400c10:	ff 25 1a 34 20 00    	jmpq   *0x20341a(%rip)        # 604030 <strncmp@GLIBC_2.2.5>
  400c16:	68 03 00 00 00       	pushq  $0x3
  400c1b:	e9 b0 ff ff ff       	jmpq   400bd0 <.plt>

0000000000400c20 <strcpy@plt>:
  400c20:	ff 25 12 34 20 00    	jmpq   *0x203412(%rip)        # 604038 <strcpy@GLIBC_2.2.5>
  400c26:	68 04 00 00 00       	pushq  $0x4
  400c2b:	e9 a0 ff ff ff       	jmpq   400bd0 <.plt>

0000000000400c30 <puts@plt>:
  400c30:	ff 25 0a 34 20 00    	jmpq   *0x20340a(%rip)        # 604040 <puts@GLIBC_2.2.5>
  400c36:	68 05 00 00 00       	pushq  $0x5
  400c3b:	e9 90 ff ff ff       	jmpq   400bd0 <.plt>

0000000000400c40 <write@plt>:
  400c40:	ff 25 02 34 20 00    	jmpq   *0x203402(%rip)        # 604048 <write@GLIBC_2.2.5>
  400c46:	68 06 00 00 00       	pushq  $0x6
  400c4b:	e9 80 ff ff ff       	jmpq   400bd0 <.plt>

0000000000400c50 <mmap@plt>:
  400c50:	ff 25 fa 33 20 00    	jmpq   *0x2033fa(%rip)        # 604050 <mmap@GLIBC_2.2.5>
  400c56:	68 07 00 00 00       	pushq  $0x7
  400c5b:	e9 70 ff ff ff       	jmpq   400bd0 <.plt>

0000000000400c60 <printf@plt>:
  400c60:	ff 25 f2 33 20 00    	jmpq   *0x2033f2(%rip)        # 604058 <printf@GLIBC_2.2.5>
  400c66:	68 08 00 00 00       	pushq  $0x8
  400c6b:	e9 60 ff ff ff       	jmpq   400bd0 <.plt>

0000000000400c70 <memset@plt>:
  400c70:	ff 25 ea 33 20 00    	jmpq   *0x2033ea(%rip)        # 604060 <memset@GLIBC_2.2.5>
  400c76:	68 09 00 00 00       	pushq  $0x9
  400c7b:	e9 50 ff ff ff       	jmpq   400bd0 <.plt>

0000000000400c80 <alarm@plt>:
  400c80:	ff 25 e2 33 20 00    	jmpq   *0x2033e2(%rip)        # 604068 <alarm@GLIBC_2.2.5>
  400c86:	68 0a 00 00 00       	pushq  $0xa
  400c8b:	e9 40 ff ff ff       	jmpq   400bd0 <.plt>

0000000000400c90 <close@plt>:
  400c90:	ff 25 da 33 20 00    	jmpq   *0x2033da(%rip)        # 604070 <close@GLIBC_2.2.5>
  400c96:	68 0b 00 00 00       	pushq  $0xb
  400c9b:	e9 30 ff ff ff       	jmpq   400bd0 <.plt>

0000000000400ca0 <read@plt>:
  400ca0:	ff 25 d2 33 20 00    	jmpq   *0x2033d2(%rip)        # 604078 <read@GLIBC_2.2.5>
  400ca6:	68 0c 00 00 00       	pushq  $0xc
  400cab:	e9 20 ff ff ff       	jmpq   400bd0 <.plt>

0000000000400cb0 <signal@plt>:
  400cb0:	ff 25 ca 33 20 00    	jmpq   *0x2033ca(%rip)        # 604080 <signal@GLIBC_2.2.5>
  400cb6:	68 0d 00 00 00       	pushq  $0xd
  400cbb:	e9 10 ff ff ff       	jmpq   400bd0 <.plt>

0000000000400cc0 <gethostbyname@plt>:
  400cc0:	ff 25 c2 33 20 00    	jmpq   *0x2033c2(%rip)        # 604088 <gethostbyname@GLIBC_2.2.5>
  400cc6:	68 0e 00 00 00       	pushq  $0xe
  400ccb:	e9 00 ff ff ff       	jmpq   400bd0 <.plt>

0000000000400cd0 <fprintf@plt>:
  400cd0:	ff 25 ba 33 20 00    	jmpq   *0x2033ba(%rip)        # 604090 <fprintf@GLIBC_2.2.5>
  400cd6:	68 0f 00 00 00       	pushq  $0xf
  400cdb:	e9 f0 fe ff ff       	jmpq   400bd0 <.plt>

0000000000400ce0 <strtol@plt>:
  400ce0:	ff 25 b2 33 20 00    	jmpq   *0x2033b2(%rip)        # 604098 <strtol@GLIBC_2.2.5>
  400ce6:	68 10 00 00 00       	pushq  $0x10
  400ceb:	e9 e0 fe ff ff       	jmpq   400bd0 <.plt>

0000000000400cf0 <memcpy@plt>:
  400cf0:	ff 25 aa 33 20 00    	jmpq   *0x2033aa(%rip)        # 6040a0 <memcpy@GLIBC_2.14>
  400cf6:	68 11 00 00 00       	pushq  $0x11
  400cfb:	e9 d0 fe ff ff       	jmpq   400bd0 <.plt>

0000000000400d00 <time@plt>:
  400d00:	ff 25 a2 33 20 00    	jmpq   *0x2033a2(%rip)        # 6040a8 <time@GLIBC_2.2.5>
  400d06:	68 12 00 00 00       	pushq  $0x12
  400d0b:	e9 c0 fe ff ff       	jmpq   400bd0 <.plt>

0000000000400d10 <random@plt>:
  400d10:	ff 25 9a 33 20 00    	jmpq   *0x20339a(%rip)        # 6040b0 <random@GLIBC_2.2.5>
  400d16:	68 13 00 00 00       	pushq  $0x13
  400d1b:	e9 b0 fe ff ff       	jmpq   400bd0 <.plt>

0000000000400d20 <_IO_getc@plt>:
  400d20:	ff 25 92 33 20 00    	jmpq   *0x203392(%rip)        # 6040b8 <_IO_getc@GLIBC_2.2.5>
  400d26:	68 14 00 00 00       	pushq  $0x14
  400d2b:	e9 a0 fe ff ff       	jmpq   400bd0 <.plt>

0000000000400d30 <__isoc99_sscanf@plt>:
  400d30:	ff 25 8a 33 20 00    	jmpq   *0x20338a(%rip)        # 6040c0 <__isoc99_sscanf@GLIBC_2.7>
  400d36:	68 15 00 00 00       	pushq  $0x15
  400d3b:	e9 90 fe ff ff       	jmpq   400bd0 <.plt>

0000000000400d40 <munmap@plt>:
  400d40:	ff 25 82 33 20 00    	jmpq   *0x203382(%rip)        # 6040c8 <munmap@GLIBC_2.2.5>
  400d46:	68 16 00 00 00       	pushq  $0x16
  400d4b:	e9 80 fe ff ff       	jmpq   400bd0 <.plt>

0000000000400d50 <bcopy@plt>:
  400d50:	ff 25 7a 33 20 00    	jmpq   *0x20337a(%rip)        # 6040d0 <bcopy@GLIBC_2.2.5>
  400d56:	68 17 00 00 00       	pushq  $0x17
  400d5b:	e9 70 fe ff ff       	jmpq   400bd0 <.plt>

0000000000400d60 <fopen@plt>:
  400d60:	ff 25 72 33 20 00    	jmpq   *0x203372(%rip)        # 6040d8 <fopen@GLIBC_2.2.5>
  400d66:	68 18 00 00 00       	pushq  $0x18
  400d6b:	e9 60 fe ff ff       	jmpq   400bd0 <.plt>

0000000000400d70 <getopt@plt>:
  400d70:	ff 25 6a 33 20 00    	jmpq   *0x20336a(%rip)        # 6040e0 <getopt@GLIBC_2.2.5>
  400d76:	68 19 00 00 00       	pushq  $0x19
  400d7b:	e9 50 fe ff ff       	jmpq   400bd0 <.plt>

0000000000400d80 <strtoul@plt>:
  400d80:	ff 25 62 33 20 00    	jmpq   *0x203362(%rip)        # 6040e8 <strtoul@GLIBC_2.2.5>
  400d86:	68 1a 00 00 00       	pushq  $0x1a
  400d8b:	e9 40 fe ff ff       	jmpq   400bd0 <.plt>

0000000000400d90 <gethostname@plt>:
  400d90:	ff 25 5a 33 20 00    	jmpq   *0x20335a(%rip)        # 6040f0 <gethostname@GLIBC_2.2.5>
  400d96:	68 1b 00 00 00       	pushq  $0x1b
  400d9b:	e9 30 fe ff ff       	jmpq   400bd0 <.plt>

0000000000400da0 <sprintf@plt>:
  400da0:	ff 25 52 33 20 00    	jmpq   *0x203352(%rip)        # 6040f8 <sprintf@GLIBC_2.2.5>
  400da6:	68 1c 00 00 00       	pushq  $0x1c
  400dab:	e9 20 fe ff ff       	jmpq   400bd0 <.plt>

0000000000400db0 <exit@plt>:
  400db0:	ff 25 4a 33 20 00    	jmpq   *0x20334a(%rip)        # 604100 <exit@GLIBC_2.2.5>
  400db6:	68 1d 00 00 00       	pushq  $0x1d
  400dbb:	e9 10 fe ff ff       	jmpq   400bd0 <.plt>

0000000000400dc0 <connect@plt>:
  400dc0:	ff 25 42 33 20 00    	jmpq   *0x203342(%rip)        # 604108 <connect@GLIBC_2.2.5>
  400dc6:	68 1e 00 00 00       	pushq  $0x1e
  400dcb:	e9 00 fe ff ff       	jmpq   400bd0 <.plt>

0000000000400dd0 <socket@plt>:
  400dd0:	ff 25 3a 33 20 00    	jmpq   *0x20333a(%rip)        # 604110 <socket@GLIBC_2.2.5>
  400dd6:	68 1f 00 00 00       	pushq  $0x1f
  400ddb:	e9 f0 fd ff ff       	jmpq   400bd0 <.plt>

Disassembly of section .text:

0000000000400de0 <_start>:
  400de0:	31 ed                	xor    %ebp,%ebp
  400de2:	49 89 d1             	mov    %rdx,%r9
  400de5:	5e                   	pop    %rsi
  400de6:	48 89 e2             	mov    %rsp,%rdx
  400de9:	48 83 e4 f0          	and    $0xfffffffffffffff0,%rsp
  400ded:	50                   	push   %rax
  400dee:	54                   	push   %rsp
  400def:	49 c7 c0 30 2c 40 00 	mov    $0x402c30,%r8
  400df6:	48 c7 c1 c0 2b 40 00 	mov    $0x402bc0,%rcx
  400dfd:	48 c7 c7 8d 10 40 00 	mov    $0x40108d,%rdi
  400e04:	ff 15 e6 31 20 00    	callq  *0x2031e6(%rip)        # 603ff0 <__libc_start_main@GLIBC_2.2.5>
  400e0a:	f4                   	hlt    
  400e0b:	0f 1f 44 00 00       	nopl   0x0(%rax,%rax,1)

0000000000400e10 <deregister_tm_clones>:
  400e10:	b8 97 44 60 00       	mov    $0x604497,%eax
  400e15:	55                   	push   %rbp
  400e16:	48 2d 90 44 60 00    	sub    $0x604490,%rax
  400e1c:	48 83 f8 0e          	cmp    $0xe,%rax
  400e20:	48 89 e5             	mov    %rsp,%rbp
  400e23:	76 1b                	jbe    400e40 <deregister_tm_clones+0x30>
  400e25:	b8 00 00 00 00       	mov    $0x0,%eax
  400e2a:	48 85 c0             	test   %rax,%rax
  400e2d:	74 11                	je     400e40 <deregister_tm_clones+0x30>
  400e2f:	5d                   	pop    %rbp
  400e30:	bf 90 44 60 00       	mov    $0x604490,%edi
  400e35:	ff e0                	jmpq   *%rax
  400e37:	66 0f 1f 84 00 00 00 	nopw   0x0(%rax,%rax,1)
  400e3e:	00 00 
  400e40:	5d                   	pop    %rbp
  400e41:	c3                   	retq   
  400e42:	0f 1f 40 00          	nopl   0x0(%rax)
  400e46:	66 2e 0f 1f 84 00 00 	nopw   %cs:0x0(%rax,%rax,1)
  400e4d:	00 00 00 

0000000000400e50 <register_tm_clones>:
  400e50:	be 90 44 60 00       	mov    $0x604490,%esi
  400e55:	55                   	push   %rbp
  400e56:	48 81 ee 90 44 60 00 	sub    $0x604490,%rsi
  400e5d:	48 c1 fe 03          	sar    $0x3,%rsi
  400e61:	48 89 e5             	mov    %rsp,%rbp
  400e64:	48 89 f0             	mov    %rsi,%rax
  400e67:	48 c1 e8 3f          	shr    $0x3f,%rax
  400e6b:	48 01 c6             	add    %rax,%rsi
  400e6e:	48 d1 fe             	sar    %rsi
  400e71:	74 15                	je     400e88 <register_tm_clones+0x38>
  400e73:	b8 00 00 00 00       	mov    $0x0,%eax
  400e78:	48 85 c0             	test   %rax,%rax
  400e7b:	74 0b                	je     400e88 <register_tm_clones+0x38>
  400e7d:	5d                   	pop    %rbp
  400e7e:	bf 90 44 60 00       	mov    $0x604490,%edi
  400e83:	ff e0                	jmpq   *%rax
  400e85:	0f 1f 00             	nopl   (%rax)
  400e88:	5d                   	pop    %rbp
  400e89:	c3                   	retq   
  400e8a:	66 0f 1f 44 00 00    	nopw   0x0(%rax,%rax,1)

0000000000400e90 <__do_global_dtors_aux>:
  400e90:	80 3d 31 36 20 00 00 	cmpb   $0x0,0x203631(%rip)        # 6044c8 <completed.6972>
  400e97:	75 11                	jne    400eaa <__do_global_dtors_aux+0x1a>
  400e99:	55                   	push   %rbp
  400e9a:	48 89 e5             	mov    %rsp,%rbp
  400e9d:	e8 6e ff ff ff       	callq  400e10 <deregister_tm_clones>
  400ea2:	5d                   	pop    %rbp
  400ea3:	c6 05 1e 36 20 00 01 	movb   $0x1,0x20361e(%rip)        # 6044c8 <completed.6972>
  400eaa:	f3 c3                	repz retq 
  400eac:	0f 1f 40 00          	nopl   0x0(%rax)

0000000000400eb0 <frame_dummy>:
  400eb0:	bf 18 3e 60 00       	mov    $0x603e18,%edi
  400eb5:	48 83 3f 00          	cmpq   $0x0,(%rdi)
  400eb9:	75 05                	jne    400ec0 <frame_dummy+0x10>
  400ebb:	eb 93                	jmp    400e50 <register_tm_clones>
  400ebd:	0f 1f 00             	nopl   (%rax)
  400ec0:	b8 00 00 00 00       	mov    $0x0,%eax
  400ec5:	48 85 c0             	test   %rax,%rax
  400ec8:	74 f1                	je     400ebb <frame_dummy+0xb>
  400eca:	55                   	push   %rbp
  400ecb:	48 89 e5             	mov    %rsp,%rbp
  400ece:	ff d0                	callq  *%rax
  400ed0:	5d                   	pop    %rbp
  400ed1:	e9 7a ff ff ff       	jmpq   400e50 <register_tm_clones>

0000000000400ed6 <usage>:
  400ed6:	48 83 ec 08          	sub    $0x8,%rsp
  400eda:	48 89 fe             	mov    %rdi,%rsi
  400edd:	83 3d 24 36 20 00 00 	cmpl   $0x0,0x203624(%rip)        # 604508 <is_checker>
  400ee4:	74 4b                	je     400f31 <usage+0x5b>
  400ee6:	48 8d 3d 5b 1d 00 00 	lea    0x1d5b(%rip),%rdi        # 402c48 <_IO_stdin_used+0x8>
  400eed:	b8 00 00 00 00       	mov    $0x0,%eax
  400ef2:	e8 69 fd ff ff       	callq  400c60 <printf@plt>
  400ef7:	48 8d 3d 82 1d 00 00 	lea    0x1d82(%rip),%rdi        # 402c80 <_IO_stdin_used+0x40>
  400efe:	e8 2d fd ff ff       	callq  400c30 <puts@plt>
  400f03:	48 8d 3d ae 1e 00 00 	lea    0x1eae(%rip),%rdi        # 402db8 <_IO_stdin_used+0x178>
  400f0a:	e8 21 fd ff ff       	callq  400c30 <puts@plt>
  400f0f:	48 8d 3d 92 1d 00 00 	lea    0x1d92(%rip),%rdi        # 402ca8 <_IO_stdin_used+0x68>
  400f16:	e8 15 fd ff ff       	callq  400c30 <puts@plt>
  400f1b:	48 8d 3d b0 1e 00 00 	lea    0x1eb0(%rip),%rdi        # 402dd2 <_IO_stdin_used+0x192>
  400f22:	e8 09 fd ff ff       	callq  400c30 <puts@plt>
  400f27:	bf 00 00 00 00       	mov    $0x0,%edi
  400f2c:	e8 7f fe ff ff       	callq  400db0 <exit@plt>
  400f31:	48 8d 3d b6 1e 00 00 	lea    0x1eb6(%rip),%rdi        # 402dee <_IO_stdin_used+0x1ae>
  400f38:	b8 00 00 00 00       	mov    $0x0,%eax
  400f3d:	e8 1e fd ff ff       	callq  400c60 <printf@plt>
  400f42:	48 8d 3d 87 1d 00 00 	lea    0x1d87(%rip),%rdi        # 402cd0 <_IO_stdin_used+0x90>
  400f49:	e8 e2 fc ff ff       	callq  400c30 <puts@plt>
  400f4e:	48 8d 3d a3 1d 00 00 	lea    0x1da3(%rip),%rdi        # 402cf8 <_IO_stdin_used+0xb8>
  400f55:	e8 d6 fc ff ff       	callq  400c30 <puts@plt>
  400f5a:	48 8d 3d ab 1e 00 00 	lea    0x1eab(%rip),%rdi        # 402e0c <_IO_stdin_used+0x1cc>
  400f61:	e8 ca fc ff ff       	callq  400c30 <puts@plt>
  400f66:	eb bf                	jmp    400f27 <usage+0x51>

0000000000400f68 <initialize_target>:
  400f68:	55                   	push   %rbp
  400f69:	53                   	push   %rbx
  400f6a:	48 81 ec 08 21 00 00 	sub    $0x2108,%rsp
  400f71:	89 f5                	mov    %esi,%ebp
  400f73:	89 3d 7f 35 20 00    	mov    %edi,0x20357f(%rip)        # 6044f8 <check_level>
  400f79:	8b 3d b1 31 20 00    	mov    0x2031b1(%rip),%edi        # 604130 <target_id>
  400f7f:	e8 1d 1c 00 00       	callq  402ba1 <gencookie>
  400f84:	89 05 7a 35 20 00    	mov    %eax,0x20357a(%rip)        # 604504 <cookie>
  400f8a:	89 c7                	mov    %eax,%edi
  400f8c:	e8 10 1c 00 00       	callq  402ba1 <gencookie>
  400f91:	89 05 69 35 20 00    	mov    %eax,0x203569(%rip)        # 604500 <authkey>
  400f97:	8b 05 93 31 20 00    	mov    0x203193(%rip),%eax        # 604130 <target_id>
  400f9d:	8d 78 01             	lea    0x1(%rax),%edi
  400fa0:	e8 5b fc ff ff       	callq  400c00 <srandom@plt>
  400fa5:	e8 66 fd ff ff       	callq  400d10 <random@plt>
  400faa:	89 c7                	mov    %eax,%edi
  400fac:	e8 c3 02 00 00       	callq  401274 <scramble>
  400fb1:	89 c3                	mov    %eax,%ebx
  400fb3:	85 ed                	test   %ebp,%ebp
  400fb5:	75 3d                	jne    400ff4 <initialize_target+0x8c>
  400fb7:	b8 00 00 00 00       	mov    $0x0,%eax
  400fbc:	01 d8                	add    %ebx,%eax
  400fbe:	0f b7 c0             	movzwl %ax,%eax
  400fc1:	8d 04 c5 00 01 00 00 	lea    0x100(,%rax,8),%eax
  400fc8:	89 c0                	mov    %eax,%eax
  400fca:	48 89 05 af 34 20 00 	mov    %rax,0x2034af(%rip)        # 604480 <buf_offset>
  400fd1:	c6 05 50 41 20 00 63 	movb   $0x63,0x204150(%rip)        # 605128 <target_prefix>
  400fd8:	83 3d a9 34 20 00 00 	cmpl   $0x0,0x2034a9(%rip)        # 604488 <notify>
  400fdf:	74 09                	je     400fea <initialize_target+0x82>
  400fe1:	83 3d 20 35 20 00 00 	cmpl   $0x0,0x203520(%rip)        # 604508 <is_checker>
  400fe8:	74 22                	je     40100c <initialize_target+0xa4>
  400fea:	48 81 c4 08 21 00 00 	add    $0x2108,%rsp
  400ff1:	5b                   	pop    %rbx
  400ff2:	5d                   	pop    %rbp
  400ff3:	c3                   	retq   
  400ff4:	bf 00 00 00 00       	mov    $0x0,%edi
  400ff9:	e8 02 fd ff ff       	callq  400d00 <time@plt>
  400ffe:	89 c7                	mov    %eax,%edi
  401000:	e8 fb fb ff ff       	callq  400c00 <srandom@plt>
  401005:	e8 06 fd ff ff       	callq  400d10 <random@plt>
  40100a:	eb b0                	jmp    400fbc <initialize_target+0x54>
  40100c:	48 89 e7             	mov    %rsp,%rdi
  40100f:	be 00 01 00 00       	mov    $0x100,%esi
  401014:	e8 77 fd ff ff       	callq  400d90 <gethostname@plt>
  401019:	89 c3                	mov    %eax,%ebx
  40101b:	85 c0                	test   %eax,%eax
  40101d:	75 24                	jne    401043 <initialize_target+0xdb>
  40101f:	48 63 c3             	movslq %ebx,%rax
  401022:	48 8d 15 37 31 20 00 	lea    0x203137(%rip),%rdx        # 604160 <host_table>
  401029:	48 8b 3c c2          	mov    (%rdx,%rax,8),%rdi
  40102d:	48 85 ff             	test   %rdi,%rdi
  401030:	74 27                	je     401059 <initialize_target+0xf1>
  401032:	48 89 e6             	mov    %rsp,%rsi
  401035:	e8 a6 fb ff ff       	callq  400be0 <strcasecmp@plt>
  40103a:	85 c0                	test   %eax,%eax
  40103c:	74 1b                	je     401059 <initialize_target+0xf1>
  40103e:	83 c3 01             	add    $0x1,%ebx
  401041:	eb dc                	jmp    40101f <initialize_target+0xb7>
  401043:	48 8d 3d de 1c 00 00 	lea    0x1cde(%rip),%rdi        # 402d28 <_IO_stdin_used+0xe8>
  40104a:	e8 e1 fb ff ff       	callq  400c30 <puts@plt>
  40104f:	bf 08 00 00 00       	mov    $0x8,%edi
  401054:	e8 57 fd ff ff       	callq  400db0 <exit@plt>
  401059:	48 8d bc 24 00 01 00 	lea    0x100(%rsp),%rdi
  401060:	00 
  401061:	e8 c0 18 00 00       	callq  402926 <init_driver>
  401066:	85 c0                	test   %eax,%eax
  401068:	79 80                	jns    400fea <initialize_target+0x82>
  40106a:	48 8d b4 24 00 01 00 	lea    0x100(%rsp),%rsi
  401071:	00 
  401072:	48 8d 3d e7 1c 00 00 	lea    0x1ce7(%rip),%rdi        # 402d60 <_IO_stdin_used+0x120>
  401079:	b8 00 00 00 00       	mov    $0x0,%eax
  40107e:	e8 dd fb ff ff       	callq  400c60 <printf@plt>
  401083:	bf 08 00 00 00       	mov    $0x8,%edi
  401088:	e8 23 fd ff ff       	callq  400db0 <exit@plt>

000000000040108d <main>:
  40108d:	41 56                	push   %r14
  40108f:	41 55                	push   %r13
  401091:	41 54                	push   %r12
  401093:	55                   	push   %rbp
  401094:	53                   	push   %rbx
  401095:	41 89 fc             	mov    %edi,%r12d
  401098:	48 89 f3             	mov    %rsi,%rbx
  40109b:	48 c7 c6 cc 1c 40 00 	mov    $0x401ccc,%rsi
  4010a2:	bf 0b 00 00 00       	mov    $0xb,%edi
  4010a7:	e8 04 fc ff ff       	callq  400cb0 <signal@plt>
  4010ac:	48 c7 c6 78 1c 40 00 	mov    $0x401c78,%rsi
  4010b3:	bf 07 00 00 00       	mov    $0x7,%edi
  4010b8:	e8 f3 fb ff ff       	callq  400cb0 <signal@plt>
  4010bd:	48 c7 c6 20 1d 40 00 	mov    $0x401d20,%rsi
  4010c4:	bf 04 00 00 00       	mov    $0x4,%edi
  4010c9:	e8 e2 fb ff ff       	callq  400cb0 <signal@plt>
  4010ce:	83 3d 33 34 20 00 00 	cmpl   $0x0,0x203433(%rip)        # 604508 <is_checker>
  4010d5:	75 58                	jne    40112f <main+0xa2>
  4010d7:	48 8d 2d 47 1d 00 00 	lea    0x1d47(%rip),%rbp        # 402e25 <_IO_stdin_used+0x1e5>
  4010de:	48 8b 05 bb 33 20 00 	mov    0x2033bb(%rip),%rax        # 6044a0 <stdin@@GLIBC_2.2.5>
  4010e5:	48 89 05 04 34 20 00 	mov    %rax,0x203404(%rip)        # 6044f0 <infile>
  4010ec:	41 bd 00 00 00 00    	mov    $0x0,%r13d
  4010f2:	41 be 00 00 00 00    	mov    $0x0,%r14d
  4010f8:	48 89 ea             	mov    %rbp,%rdx
  4010fb:	48 89 de             	mov    %rbx,%rsi
  4010fe:	44 89 e7             	mov    %r12d,%edi
  401101:	e8 6a fc ff ff       	callq  400d70 <getopt@plt>
  401106:	3c ff                	cmp    $0xff,%al
  401108:	0f 84 f8 00 00 00    	je     401206 <main+0x179>
  40110e:	0f be f0             	movsbl %al,%esi
  401111:	83 e8 61             	sub    $0x61,%eax
  401114:	3c 10                	cmp    $0x10,%al
  401116:	0f 87 d1 00 00 00    	ja     4011ed <main+0x160>
  40111c:	0f b6 c0             	movzbl %al,%eax
  40111f:	48 8d 15 4a 1d 00 00 	lea    0x1d4a(%rip),%rdx        # 402e70 <_IO_stdin_used+0x230>
  401126:	48 63 04 82          	movslq (%rdx,%rax,4),%rax
  40112a:	48 01 d0             	add    %rdx,%rax
  40112d:	ff e0                	jmpq   *%rax
  40112f:	48 c7 c6 74 1d 40 00 	mov    $0x401d74,%rsi
  401136:	bf 0e 00 00 00       	mov    $0xe,%edi
  40113b:	e8 70 fb ff ff       	callq  400cb0 <signal@plt>
  401140:	bf 05 00 00 00       	mov    $0x5,%edi
  401145:	e8 36 fb ff ff       	callq  400c80 <alarm@plt>
  40114a:	48 8d 2d d9 1c 00 00 	lea    0x1cd9(%rip),%rbp        # 402e2a <_IO_stdin_used+0x1ea>
  401151:	eb 8b                	jmp    4010de <main+0x51>
  401153:	48 8b 3b             	mov    (%rbx),%rdi
  401156:	e8 7b fd ff ff       	callq  400ed6 <usage>
  40115b:	48 8d 35 53 1f 00 00 	lea    0x1f53(%rip),%rsi        # 4030b5 <_IO_stdin_used+0x475>
  401162:	48 8b 3d 3f 33 20 00 	mov    0x20333f(%rip),%rdi        # 6044a8 <optarg@@GLIBC_2.2.5>
  401169:	e8 f2 fb ff ff       	callq  400d60 <fopen@plt>
  40116e:	48 89 05 7b 33 20 00 	mov    %rax,0x20337b(%rip)        # 6044f0 <infile>
  401175:	48 85 c0             	test   %rax,%rax
  401178:	0f 85 7a ff ff ff    	jne    4010f8 <main+0x6b>
  40117e:	48 8b 15 23 33 20 00 	mov    0x203323(%rip),%rdx        # 6044a8 <optarg@@GLIBC_2.2.5>
  401185:	48 8d 35 a6 1c 00 00 	lea    0x1ca6(%rip),%rsi        # 402e32 <_IO_stdin_used+0x1f2>
  40118c:	48 8b 3d 2d 33 20 00 	mov    0x20332d(%rip),%rdi        # 6044c0 <stderr@@GLIBC_2.2.5>
  401193:	e8 38 fb ff ff       	callq  400cd0 <fprintf@plt>
  401198:	b8 01 00 00 00       	mov    $0x1,%eax
  40119d:	e9 c9 00 00 00       	jmpq   40126b <main+0x1de>
  4011a2:	ba 10 00 00 00       	mov    $0x10,%edx
  4011a7:	be 00 00 00 00       	mov    $0x0,%esi
  4011ac:	48 8b 3d f5 32 20 00 	mov    0x2032f5(%rip),%rdi        # 6044a8 <optarg@@GLIBC_2.2.5>
  4011b3:	e8 c8 fb ff ff       	callq  400d80 <strtoul@plt>
  4011b8:	41 89 c6             	mov    %eax,%r14d
  4011bb:	e9 38 ff ff ff       	jmpq   4010f8 <main+0x6b>
  4011c0:	ba 0a 00 00 00       	mov    $0xa,%edx
  4011c5:	be 00 00 00 00       	mov    $0x0,%esi
  4011ca:	48 8b 3d d7 32 20 00 	mov    0x2032d7(%rip),%rdi        # 6044a8 <optarg@@GLIBC_2.2.5>
  4011d1:	e8 0a fb ff ff       	callq  400ce0 <strtol@plt>
  4011d6:	41 89 c5             	mov    %eax,%r13d
  4011d9:	e9 1a ff ff ff       	jmpq   4010f8 <main+0x6b>
  4011de:	c7 05 a0 32 20 00 00 	movl   $0x0,0x2032a0(%rip)        # 604488 <notify>
  4011e5:	00 00 00 
  4011e8:	e9 0b ff ff ff       	jmpq   4010f8 <main+0x6b>
  4011ed:	48 8d 3d 5b 1c 00 00 	lea    0x1c5b(%rip),%rdi        # 402e4f <_IO_stdin_used+0x20f>
  4011f4:	b8 00 00 00 00       	mov    $0x0,%eax
  4011f9:	e8 62 fa ff ff       	callq  400c60 <printf@plt>
  4011fe:	48 8b 3b             	mov    (%rbx),%rdi
  401201:	e8 d0 fc ff ff       	callq  400ed6 <usage>
  401206:	be 00 00 00 00       	mov    $0x0,%esi
  40120b:	44 89 ef             	mov    %r13d,%edi
  40120e:	e8 55 fd ff ff       	callq  400f68 <initialize_target>
  401213:	83 3d ee 32 20 00 00 	cmpl   $0x0,0x2032ee(%rip)        # 604508 <is_checker>
  40121a:	74 27                	je     401243 <main+0x1b6>
  40121c:	44 3b 35 dd 32 20 00 	cmp    0x2032dd(%rip),%r14d        # 604500 <authkey>
  401223:	74 1e                	je     401243 <main+0x1b6>
  401225:	44 89 f6             	mov    %r14d,%esi
  401228:	48 8d 3d 59 1b 00 00 	lea    0x1b59(%rip),%rdi        # 402d88 <_IO_stdin_used+0x148>
  40122f:	b8 00 00 00 00       	mov    $0x0,%eax
  401234:	e8 27 fa ff ff       	callq  400c60 <printf@plt>
  401239:	b8 00 00 00 00       	mov    $0x0,%eax
  40123e:	e8 05 07 00 00       	callq  401948 <check_fail>
  401243:	8b 35 bb 32 20 00    	mov    0x2032bb(%rip),%esi        # 604504 <cookie>
  401249:	48 8d 3d 12 1c 00 00 	lea    0x1c12(%rip),%rdi        # 402e62 <_IO_stdin_used+0x222>
  401250:	b8 00 00 00 00       	mov    $0x0,%eax
  401255:	e8 06 fa ff ff       	callq  400c60 <printf@plt>
  40125a:	48 8b 3d 1f 32 20 00 	mov    0x20321f(%rip),%rdi        # 604480 <buf_offset>
  401261:	e8 e9 0b 00 00       	callq  401e4f <stable_launch>
  401266:	b8 00 00 00 00       	mov    $0x0,%eax
  40126b:	5b                   	pop    %rbx
  40126c:	5d                   	pop    %rbp
  40126d:	41 5c                	pop    %r12
  40126f:	41 5d                	pop    %r13
  401271:	41 5e                	pop    %r14
  401273:	c3                   	retq   

0000000000401274 <scramble>:
  401274:	b8 00 00 00 00       	mov    $0x0,%eax
  401279:	eb 11                	jmp    40128c <scramble+0x18>
  40127b:	69 d0 45 7d 00 00    	imul   $0x7d45,%eax,%edx
  401281:	01 fa                	add    %edi,%edx
  401283:	89 c1                	mov    %eax,%ecx
  401285:	89 54 8c d0          	mov    %edx,-0x30(%rsp,%rcx,4)
  401289:	83 c0 01             	add    $0x1,%eax
  40128c:	83 f8 09             	cmp    $0x9,%eax
  40128f:	76 ea                	jbe    40127b <scramble+0x7>
  401291:	8b 44 24 dc          	mov    -0x24(%rsp),%eax
  401295:	69 c0 97 2b 00 00    	imul   $0x2b97,%eax,%eax
  40129b:	89 44 24 dc          	mov    %eax,-0x24(%rsp)
  40129f:	8b 44 24 ec          	mov    -0x14(%rsp),%eax
  4012a3:	69 c0 ee a0 00 00    	imul   $0xa0ee,%eax,%eax
  4012a9:	89 44 24 ec          	mov    %eax,-0x14(%rsp)
  4012ad:	8b 44 24 dc          	mov    -0x24(%rsp),%eax
  4012b1:	69 c0 81 9d 00 00    	imul   $0x9d81,%eax,%eax
  4012b7:	89 44 24 dc          	mov    %eax,-0x24(%rsp)
  4012bb:	8b 44 24 e8          	mov    -0x18(%rsp),%eax
  4012bf:	69 c0 4a e8 00 00    	imul   $0xe84a,%eax,%eax
  4012c5:	89 44 24 e8          	mov    %eax,-0x18(%rsp)
  4012c9:	8b 44 24 e8          	mov    -0x18(%rsp),%eax
  4012cd:	69 c0 05 33 00 00    	imul   $0x3305,%eax,%eax
  4012d3:	89 44 24 e8          	mov    %eax,-0x18(%rsp)
  4012d7:	8b 44 24 d0          	mov    -0x30(%rsp),%eax
  4012db:	69 c0 89 6a 00 00    	imul   $0x6a89,%eax,%eax
  4012e1:	89 44 24 d0          	mov    %eax,-0x30(%rsp)
  4012e5:	8b 44 24 f4          	mov    -0xc(%rsp),%eax
  4012e9:	69 c0 0c 10 00 00    	imul   $0x100c,%eax,%eax
  4012ef:	89 44 24 f4          	mov    %eax,-0xc(%rsp)
  4012f3:	8b 44 24 ec          	mov    -0x14(%rsp),%eax
  4012f7:	69 c0 db 60 00 00    	imul   $0x60db,%eax,%eax
  4012fd:	89 44 24 ec          	mov    %eax,-0x14(%rsp)
  401301:	8b 44 24 e0          	mov    -0x20(%rsp),%eax
  401305:	69 c0 68 fb 00 00    	imul   $0xfb68,%eax,%eax
  40130b:	89 44 24 e0          	mov    %eax,-0x20(%rsp)
  40130f:	8b 44 24 f4          	mov    -0xc(%rsp),%eax
  401313:	69 c0 bc 78 00 00    	imul   $0x78bc,%eax,%eax
  401319:	89 44 24 f4          	mov    %eax,-0xc(%rsp)
  40131d:	8b 44 24 e0          	mov    -0x20(%rsp),%eax
  401321:	69 c0 8b 0d 00 00    	imul   $0xd8b,%eax,%eax
  401327:	89 44 24 e0          	mov    %eax,-0x20(%rsp)
  40132b:	8b 44 24 d8          	mov    -0x28(%rsp),%eax
  40132f:	69 c0 24 7f 00 00    	imul   $0x7f24,%eax,%eax
  401335:	89 44 24 d8          	mov    %eax,-0x28(%rsp)
  401339:	8b 44 24 d4          	mov    -0x2c(%rsp),%eax
  40133d:	69 c0 0e 01 00 00    	imul   $0x10e,%eax,%eax
  401343:	89 44 24 d4          	mov    %eax,-0x2c(%rsp)
  401347:	8b 44 24 f0          	mov    -0x10(%rsp),%eax
  40134b:	69 c0 5c 89 00 00    	imul   $0x895c,%eax,%eax
  401351:	89 44 24 f0          	mov    %eax,-0x10(%rsp)
  401355:	8b 44 24 d4          	mov    -0x2c(%rsp),%eax
  401359:	69 c0 26 7a 00 00    	imul   $0x7a26,%eax,%eax
  40135f:	89 44 24 d4          	mov    %eax,-0x2c(%rsp)
  401363:	8b 44 24 f4          	mov    -0xc(%rsp),%eax
  401367:	69 c0 83 6b 00 00    	imul   $0x6b83,%eax,%eax
  40136d:	89 44 24 f4          	mov    %eax,-0xc(%rsp)
  401371:	8b 44 24 d8          	mov    -0x28(%rsp),%eax
  401375:	69 c0 72 53 00 00    	imul   $0x5372,%eax,%eax
  40137b:	89 44 24 d8          	mov    %eax,-0x28(%rsp)
  40137f:	8b 44 24 ec          	mov    -0x14(%rsp),%eax
  401383:	69 c0 9b 60 00 00    	imul   $0x609b,%eax,%eax
  401389:	89 44 24 ec          	mov    %eax,-0x14(%rsp)
  40138d:	8b 44 24 f4          	mov    -0xc(%rsp),%eax
  401391:	69 c0 b3 5f 00 00    	imul   $0x5fb3,%eax,%eax
  401397:	89 44 24 f4          	mov    %eax,-0xc(%rsp)
  40139b:	8b 44 24 dc          	mov    -0x24(%rsp),%eax
  40139f:	69 c0 85 6f 00 00    	imul   $0x6f85,%eax,%eax
  4013a5:	89 44 24 dc          	mov    %eax,-0x24(%rsp)
  4013a9:	8b 44 24 d8          	mov    -0x28(%rsp),%eax
  4013ad:	69 c0 f9 77 00 00    	imul   $0x77f9,%eax,%eax
  4013b3:	89 44 24 d8          	mov    %eax,-0x28(%rsp)
  4013b7:	8b 44 24 f0          	mov    -0x10(%rsp),%eax
  4013bb:	69 c0 63 5b 00 00    	imul   $0x5b63,%eax,%eax
  4013c1:	89 44 24 f0          	mov    %eax,-0x10(%rsp)
  4013c5:	8b 44 24 d0          	mov    -0x30(%rsp),%eax
  4013c9:	69 c0 3d d7 00 00    	imul   $0xd73d,%eax,%eax
  4013cf:	89 44 24 d0          	mov    %eax,-0x30(%rsp)
  4013d3:	8b 44 24 dc          	mov    -0x24(%rsp),%eax
  4013d7:	69 c0 45 f3 00 00    	imul   $0xf345,%eax,%eax
  4013dd:	89 44 24 dc          	mov    %eax,-0x24(%rsp)
  4013e1:	8b 44 24 d4          	mov    -0x2c(%rsp),%eax
  4013e5:	69 c0 ad b5 00 00    	imul   $0xb5ad,%eax,%eax
  4013eb:	89 44 24 d4          	mov    %eax,-0x2c(%rsp)
  4013ef:	8b 44 24 f0          	mov    -0x10(%rsp),%eax
  4013f3:	69 c0 ac 83 00 00    	imul   $0x83ac,%eax,%eax
  4013f9:	89 44 24 f0          	mov    %eax,-0x10(%rsp)
  4013fd:	8b 44 24 ec          	mov    -0x14(%rsp),%eax
  401401:	69 c0 e3 ac 00 00    	imul   $0xace3,%eax,%eax
  401407:	89 44 24 ec          	mov    %eax,-0x14(%rsp)
  40140b:	8b 44 24 ec          	mov    -0x14(%rsp),%eax
  40140f:	69 c0 0e 41 00 00    	imul   $0x410e,%eax,%eax
  401415:	89 44 24 ec          	mov    %eax,-0x14(%rsp)
  401419:	8b 44 24 d4          	mov    -0x2c(%rsp),%eax
  40141d:	69 c0 32 76 00 00    	imul   $0x7632,%eax,%eax
  401423:	89 44 24 d4          	mov    %eax,-0x2c(%rsp)
  401427:	8b 44 24 f0          	mov    -0x10(%rsp),%eax
  40142b:	69 c0 30 9c 00 00    	imul   $0x9c30,%eax,%eax
  401431:	89 44 24 f0          	mov    %eax,-0x10(%rsp)
  401435:	8b 44 24 e4          	mov    -0x1c(%rsp),%eax
  401439:	69 c0 8c b7 00 00    	imul   $0xb78c,%eax,%eax
  40143f:	89 44 24 e4          	mov    %eax,-0x1c(%rsp)
  401443:	8b 44 24 f4          	mov    -0xc(%rsp),%eax
  401447:	69 c0 15 96 00 00    	imul   $0x9615,%eax,%eax
  40144d:	89 44 24 f4          	mov    %eax,-0xc(%rsp)
  401451:	8b 44 24 e8          	mov    -0x18(%rsp),%eax
  401455:	69 c0 25 14 00 00    	imul   $0x1425,%eax,%eax
  40145b:	89 44 24 e8          	mov    %eax,-0x18(%rsp)
  40145f:	8b 44 24 e4          	mov    -0x1c(%rsp),%eax
  401463:	69 c0 f2 fb 00 00    	imul   $0xfbf2,%eax,%eax
  401469:	89 44 24 e4          	mov    %eax,-0x1c(%rsp)
  40146d:	8b 44 24 e0          	mov    -0x20(%rsp),%eax
  401471:	69 c0 95 3f 00 00    	imul   $0x3f95,%eax,%eax
  401477:	89 44 24 e0          	mov    %eax,-0x20(%rsp)
  40147b:	8b 44 24 e4          	mov    -0x1c(%rsp),%eax
  40147f:	69 c0 92 06 00 00    	imul   $0x692,%eax,%eax
  401485:	89 44 24 e4          	mov    %eax,-0x1c(%rsp)
  401489:	8b 44 24 e4          	mov    -0x1c(%rsp),%eax
  40148d:	69 c0 86 45 00 00    	imul   $0x4586,%eax,%eax
  401493:	89 44 24 e4          	mov    %eax,-0x1c(%rsp)
  401497:	8b 44 24 e0          	mov    -0x20(%rsp),%eax
  40149b:	69 c0 95 3f 00 00    	imul   $0x3f95,%eax,%eax
  4014a1:	89 44 24 e0          	mov    %eax,-0x20(%rsp)
  4014a5:	8b 44 24 f0          	mov    -0x10(%rsp),%eax
  4014a9:	69 c0 33 1e 00 00    	imul   $0x1e33,%eax,%eax
  4014af:	89 44 24 f0          	mov    %eax,-0x10(%rsp)
  4014b3:	8b 44 24 e0          	mov    -0x20(%rsp),%eax
  4014b7:	69 c0 69 ef 00 00    	imul   $0xef69,%eax,%eax
  4014bd:	89 44 24 e0          	mov    %eax,-0x20(%rsp)
  4014c1:	8b 44 24 d8          	mov    -0x28(%rsp),%eax
  4014c5:	69 c0 db 9e 00 00    	imul   $0x9edb,%eax,%eax
  4014cb:	89 44 24 d8          	mov    %eax,-0x28(%rsp)
  4014cf:	8b 44 24 e8          	mov    -0x18(%rsp),%eax
  4014d3:	69 c0 18 97 00 00    	imul   $0x9718,%eax,%eax
  4014d9:	89 44 24 e8          	mov    %eax,-0x18(%rsp)
  4014dd:	8b 44 24 e4          	mov    -0x1c(%rsp),%eax
  4014e1:	69 c0 e7 75 00 00    	imul   $0x75e7,%eax,%eax
  4014e7:	89 44 24 e4          	mov    %eax,-0x1c(%rsp)
  4014eb:	8b 44 24 dc          	mov    -0x24(%rsp),%eax
  4014ef:	69 c0 af f9 00 00    	imul   $0xf9af,%eax,%eax
  4014f5:	89 44 24 dc          	mov    %eax,-0x24(%rsp)
  4014f9:	8b 44 24 dc          	mov    -0x24(%rsp),%eax
  4014fd:	69 c0 92 a2 00 00    	imul   $0xa292,%eax,%eax
  401503:	89 44 24 dc          	mov    %eax,-0x24(%rsp)
  401507:	8b 44 24 d8          	mov    -0x28(%rsp),%eax
  40150b:	69 c0 71 dc 00 00    	imul   $0xdc71,%eax,%eax
  401511:	89 44 24 d8          	mov    %eax,-0x28(%rsp)
  401515:	8b 44 24 d0          	mov    -0x30(%rsp),%eax
  401519:	69 c0 93 9d 00 00    	imul   $0x9d93,%eax,%eax
  40151f:	89 44 24 d0          	mov    %eax,-0x30(%rsp)
  401523:	8b 44 24 e8          	mov    -0x18(%rsp),%eax
  401527:	69 c0 1d 65 00 00    	imul   $0x651d,%eax,%eax
  40152d:	89 44 24 e8          	mov    %eax,-0x18(%rsp)
  401531:	8b 44 24 d0          	mov    -0x30(%rsp),%eax
  401535:	69 c0 37 69 00 00    	imul   $0x6937,%eax,%eax
  40153b:	89 44 24 d0          	mov    %eax,-0x30(%rsp)
  40153f:	8b 44 24 e8          	mov    -0x18(%rsp),%eax
  401543:	69 c0 91 25 00 00    	imul   $0x2591,%eax,%eax
  401549:	89 44 24 e8          	mov    %eax,-0x18(%rsp)
  40154d:	8b 44 24 d4          	mov    -0x2c(%rsp),%eax
  401551:	69 c0 88 cc 00 00    	imul   $0xcc88,%eax,%eax
  401557:	89 44 24 d4          	mov    %eax,-0x2c(%rsp)
  40155b:	8b 44 24 e0          	mov    -0x20(%rsp),%eax
  40155f:	69 c0 5b 60 00 00    	imul   $0x605b,%eax,%eax
  401565:	89 44 24 e0          	mov    %eax,-0x20(%rsp)
  401569:	8b 44 24 e0          	mov    -0x20(%rsp),%eax
  40156d:	69 c0 18 8e 00 00    	imul   $0x8e18,%eax,%eax
  401573:	89 44 24 e0          	mov    %eax,-0x20(%rsp)
  401577:	8b 44 24 e8          	mov    -0x18(%rsp),%eax
  40157b:	69 c0 d2 2e 00 00    	imul   $0x2ed2,%eax,%eax
  401581:	89 44 24 e8          	mov    %eax,-0x18(%rsp)
  401585:	8b 44 24 d0          	mov    -0x30(%rsp),%eax
  401589:	69 c0 ca d2 00 00    	imul   $0xd2ca,%eax,%eax
  40158f:	89 44 24 d0          	mov    %eax,-0x30(%rsp)
  401593:	8b 44 24 e4          	mov    -0x1c(%rsp),%eax
  401597:	69 c0 2c 80 00 00    	imul   $0x802c,%eax,%eax
  40159d:	89 44 24 e4          	mov    %eax,-0x1c(%rsp)
  4015a1:	8b 44 24 ec          	mov    -0x14(%rsp),%eax
  4015a5:	69 c0 52 91 00 00    	imul   $0x9152,%eax,%eax
  4015ab:	89 44 24 ec          	mov    %eax,-0x14(%rsp)
  4015af:	8b 44 24 e4          	mov    -0x1c(%rsp),%eax
  4015b3:	69 c0 63 bd 00 00    	imul   $0xbd63,%eax,%eax
  4015b9:	89 44 24 e4          	mov    %eax,-0x1c(%rsp)
  4015bd:	8b 44 24 f4          	mov    -0xc(%rsp),%eax
  4015c1:	69 c0 6c ef 00 00    	imul   $0xef6c,%eax,%eax
  4015c7:	89 44 24 f4          	mov    %eax,-0xc(%rsp)
  4015cb:	8b 44 24 e0          	mov    -0x20(%rsp),%eax
  4015cf:	69 c0 52 f3 00 00    	imul   $0xf352,%eax,%eax
  4015d5:	89 44 24 e0          	mov    %eax,-0x20(%rsp)
  4015d9:	8b 44 24 d4          	mov    -0x2c(%rsp),%eax
  4015dd:	69 c0 f2 4c 00 00    	imul   $0x4cf2,%eax,%eax
  4015e3:	89 44 24 d4          	mov    %eax,-0x2c(%rsp)
  4015e7:	8b 44 24 d4          	mov    -0x2c(%rsp),%eax
  4015eb:	69 c0 1c ec 00 00    	imul   $0xec1c,%eax,%eax
  4015f1:	89 44 24 d4          	mov    %eax,-0x2c(%rsp)
  4015f5:	8b 44 24 f0          	mov    -0x10(%rsp),%eax
  4015f9:	69 c0 49 42 00 00    	imul   $0x4249,%eax,%eax
  4015ff:	89 44 24 f0          	mov    %eax,-0x10(%rsp)
  401603:	8b 44 24 d0          	mov    -0x30(%rsp),%eax
  401607:	69 c0 3e 9c 00 00    	imul   $0x9c3e,%eax,%eax
  40160d:	89 44 24 d0          	mov    %eax,-0x30(%rsp)
  401611:	8b 44 24 d4          	mov    -0x2c(%rsp),%eax
  401615:	69 c0 4a b2 00 00    	imul   $0xb24a,%eax,%eax
  40161b:	89 44 24 d4          	mov    %eax,-0x2c(%rsp)
  40161f:	8b 44 24 e8          	mov    -0x18(%rsp),%eax
  401623:	69 c0 4d 54 00 00    	imul   $0x544d,%eax,%eax
  401629:	89 44 24 e8          	mov    %eax,-0x18(%rsp)
  40162d:	8b 44 24 f0          	mov    -0x10(%rsp),%eax
  401631:	69 c0 f3 ed 00 00    	imul   $0xedf3,%eax,%eax
  401637:	89 44 24 f0          	mov    %eax,-0x10(%rsp)
  40163b:	8b 44 24 dc          	mov    -0x24(%rsp),%eax
  40163f:	69 c0 e0 90 00 00    	imul   $0x90e0,%eax,%eax
  401645:	89 44 24 dc          	mov    %eax,-0x24(%rsp)
  401649:	8b 44 24 dc          	mov    -0x24(%rsp),%eax
  40164d:	69 c0 99 54 00 00    	imul   $0x5499,%eax,%eax
  401653:	89 44 24 dc          	mov    %eax,-0x24(%rsp)
  401657:	8b 44 24 d4          	mov    -0x2c(%rsp),%eax
  40165b:	69 c0 57 28 00 00    	imul   $0x2857,%eax,%eax
  401661:	89 44 24 d4          	mov    %eax,-0x2c(%rsp)
  401665:	8b 44 24 e0          	mov    -0x20(%rsp),%eax
  401669:	69 c0 ef dd 00 00    	imul   $0xddef,%eax,%eax
  40166f:	89 44 24 e0          	mov    %eax,-0x20(%rsp)
  401673:	8b 44 24 ec          	mov    -0x14(%rsp),%eax
  401677:	69 c0 09 99 00 00    	imul   $0x9909,%eax,%eax
  40167d:	89 44 24 ec          	mov    %eax,-0x14(%rsp)
  401681:	8b 44 24 e0          	mov    -0x20(%rsp),%eax
  401685:	69 c0 c9 bf 00 00    	imul   $0xbfc9,%eax,%eax
  40168b:	89 44 24 e0          	mov    %eax,-0x20(%rsp)
  40168f:	8b 44 24 ec          	mov    -0x14(%rsp),%eax
  401693:	69 c0 7a 76 00 00    	imul   $0x767a,%eax,%eax
  401699:	89 44 24 ec          	mov    %eax,-0x14(%rsp)
  40169d:	8b 44 24 e0          	mov    -0x20(%rsp),%eax
  4016a1:	69 c0 7f 0d 00 00    	imul   $0xd7f,%eax,%eax
  4016a7:	89 44 24 e0          	mov    %eax,-0x20(%rsp)
  4016ab:	8b 44 24 d0          	mov    -0x30(%rsp),%eax
  4016af:	69 c0 33 41 00 00    	imul   $0x4133,%eax,%eax
  4016b5:	89 44 24 d0          	mov    %eax,-0x30(%rsp)
  4016b9:	8b 44 24 f4          	mov    -0xc(%rsp),%eax
  4016bd:	69 c0 8f 39 00 00    	imul   $0x398f,%eax,%eax
  4016c3:	89 44 24 f4          	mov    %eax,-0xc(%rsp)
  4016c7:	8b 44 24 f0          	mov    -0x10(%rsp),%eax
  4016cb:	69 c0 f7 44 00 00    	imul   $0x44f7,%eax,%eax
  4016d1:	89 44 24 f0          	mov    %eax,-0x10(%rsp)
  4016d5:	8b 44 24 dc          	mov    -0x24(%rsp),%eax
  4016d9:	69 c0 89 7e 00 00    	imul   $0x7e89,%eax,%eax
  4016df:	89 44 24 dc          	mov    %eax,-0x24(%rsp)
  4016e3:	8b 44 24 f4          	mov    -0xc(%rsp),%eax
  4016e7:	69 c0 59 27 00 00    	imul   $0x2759,%eax,%eax
  4016ed:	89 44 24 f4          	mov    %eax,-0xc(%rsp)
  4016f1:	8b 44 24 f0          	mov    -0x10(%rsp),%eax
  4016f5:	69 c0 05 a3 00 00    	imul   $0xa305,%eax,%eax
  4016fb:	89 44 24 f0          	mov    %eax,-0x10(%rsp)
  4016ff:	8b 44 24 d8          	mov    -0x28(%rsp),%eax
  401703:	69 c0 a5 af 00 00    	imul   $0xafa5,%eax,%eax
  401709:	89 44 24 d8          	mov    %eax,-0x28(%rsp)
  40170d:	ba 00 00 00 00       	mov    $0x0,%edx
  401712:	b8 00 00 00 00       	mov    $0x0,%eax
  401717:	eb 0b                	jmp    401724 <scramble+0x4b0>
  401719:	89 d1                	mov    %edx,%ecx
  40171b:	8b 4c 8c d0          	mov    -0x30(%rsp,%rcx,4),%ecx
  40171f:	01 c8                	add    %ecx,%eax
  401721:	83 c2 01             	add    $0x1,%edx
  401724:	83 fa 09             	cmp    $0x9,%edx
  401727:	76 f0                	jbe    401719 <scramble+0x4a5>
  401729:	f3 c3                	repz retq 

000000000040172b <getbuf>:
  40172b:	48 83 ec 38          	sub    $0x38,%rsp
  40172f:	48 89 e7             	mov    %rsp,%rdi
  401732:	e8 44 02 00 00       	callq  40197b <Gets>
  401737:	b8 01 00 00 00       	mov    $0x1,%eax
  40173c:	48 83 c4 38          	add    $0x38,%rsp
  401740:	c3                   	retq   

0000000000401741 <touch1>:
  401741:	48 83 ec 08          	sub    $0x8,%rsp
  401745:	c7 05 ad 2d 20 00 01 	movl   $0x1,0x202dad(%rip)        # 6044fc <vlevel>
  40174c:	00 00 00 
  40174f:	48 8d 3d b8 17 00 00 	lea    0x17b8(%rip),%rdi        # 402f0e <_IO_stdin_used+0x2ce>
  401756:	e8 d5 f4 ff ff       	callq  400c30 <puts@plt>
  40175b:	bf 01 00 00 00       	mov    $0x1,%edi
  401760:	e8 2d 04 00 00       	callq  401b92 <validate>
  401765:	bf 00 00 00 00       	mov    $0x0,%edi
  40176a:	e8 41 f6 ff ff       	callq  400db0 <exit@plt>

000000000040176f <touch2>:
  40176f:	48 83 ec 08          	sub    $0x8,%rsp
  401773:	89 fe                	mov    %edi,%esi
  401775:	c7 05 7d 2d 20 00 02 	movl   $0x2,0x202d7d(%rip)        # 6044fc <vlevel>
  40177c:	00 00 00 
  40177f:	39 3d 7f 2d 20 00    	cmp    %edi,0x202d7f(%rip)        # 604504 <cookie>
  401785:	74 25                	je     4017ac <touch2+0x3d>
  401787:	48 8d 3d ca 17 00 00 	lea    0x17ca(%rip),%rdi        # 402f58 <_IO_stdin_used+0x318>
  40178e:	b8 00 00 00 00       	mov    $0x0,%eax
  401793:	e8 c8 f4 ff ff       	callq  400c60 <printf@plt>
  401798:	bf 02 00 00 00       	mov    $0x2,%edi
  40179d:	e8 ae 04 00 00       	callq  401c50 <fail>
  4017a2:	bf 00 00 00 00       	mov    $0x0,%edi
  4017a7:	e8 04 f6 ff ff       	callq  400db0 <exit@plt>
  4017ac:	48 8d 3d 7d 17 00 00 	lea    0x177d(%rip),%rdi        # 402f30 <_IO_stdin_used+0x2f0>
  4017b3:	b8 00 00 00 00       	mov    $0x0,%eax
  4017b8:	e8 a3 f4 ff ff       	callq  400c60 <printf@plt>
  4017bd:	bf 02 00 00 00       	mov    $0x2,%edi
  4017c2:	e8 cb 03 00 00       	callq  401b92 <validate>
  4017c7:	eb d9                	jmp    4017a2 <touch2+0x33>

00000000004017c9 <hexmatch>:
  4017c9:	41 54                	push   %r12
  4017cb:	55                   	push   %rbp
  4017cc:	53                   	push   %rbx
  4017cd:	48 83 ec 70          	sub    $0x70,%rsp
  4017d1:	89 fd                	mov    %edi,%ebp
  4017d3:	48 89 f3             	mov    %rsi,%rbx
  4017d6:	e8 35 f5 ff ff       	callq  400d10 <random@plt>
  4017db:	48 89 c1             	mov    %rax,%rcx
  4017de:	48 ba 0b d7 a3 70 3d 	movabs $0xa3d70a3d70a3d70b,%rdx
  4017e5:	0a d7 a3 
  4017e8:	48 f7 ea             	imul   %rdx
  4017eb:	48 01 ca             	add    %rcx,%rdx
  4017ee:	48 c1 fa 06          	sar    $0x6,%rdx
  4017f2:	48 89 c8             	mov    %rcx,%rax
  4017f5:	48 c1 f8 3f          	sar    $0x3f,%rax
  4017f9:	48 29 c2             	sub    %rax,%rdx
  4017fc:	48 8d 04 92          	lea    (%rdx,%rdx,4),%rax
  401800:	48 8d 14 80          	lea    (%rax,%rax,4),%rdx
  401804:	48 8d 04 95 00 00 00 	lea    0x0(,%rdx,4),%rax
  40180b:	00 
  40180c:	48 29 c1             	sub    %rax,%rcx
  40180f:	4c 8d 24 0c          	lea    (%rsp,%rcx,1),%r12
  401813:	89 ea                	mov    %ebp,%edx
  401815:	48 8d 35 0f 17 00 00 	lea    0x170f(%rip),%rsi        # 402f2b <_IO_stdin_used+0x2eb>
  40181c:	4c 89 e7             	mov    %r12,%rdi
  40181f:	b8 00 00 00 00       	mov    $0x0,%eax
  401824:	e8 77 f5 ff ff       	callq  400da0 <sprintf@plt>
  401829:	ba 09 00 00 00       	mov    $0x9,%edx
  40182e:	4c 89 e6             	mov    %r12,%rsi
  401831:	48 89 df             	mov    %rbx,%rdi
  401834:	e8 d7 f3 ff ff       	callq  400c10 <strncmp@plt>
  401839:	85 c0                	test   %eax,%eax
  40183b:	0f 94 c0             	sete   %al
  40183e:	0f b6 c0             	movzbl %al,%eax
  401841:	48 83 c4 70          	add    $0x70,%rsp
  401845:	5b                   	pop    %rbx
  401846:	5d                   	pop    %rbp
  401847:	41 5c                	pop    %r12
  401849:	c3                   	retq   

000000000040184a <touch3>:
  40184a:	53                   	push   %rbx
  40184b:	48 89 fb             	mov    %rdi,%rbx
  40184e:	c7 05 a4 2c 20 00 03 	movl   $0x3,0x202ca4(%rip)        # 6044fc <vlevel>
  401855:	00 00 00 
  401858:	48 89 fe             	mov    %rdi,%rsi
  40185b:	8b 3d a3 2c 20 00    	mov    0x202ca3(%rip),%edi        # 604504 <cookie>
  401861:	e8 63 ff ff ff       	callq  4017c9 <hexmatch>
  401866:	85 c0                	test   %eax,%eax
  401868:	74 28                	je     401892 <touch3+0x48>
  40186a:	48 89 de             	mov    %rbx,%rsi
  40186d:	48 8d 3d 0c 17 00 00 	lea    0x170c(%rip),%rdi        # 402f80 <_IO_stdin_used+0x340>
  401874:	b8 00 00 00 00       	mov    $0x0,%eax
  401879:	e8 e2 f3 ff ff       	callq  400c60 <printf@plt>
  40187e:	bf 03 00 00 00       	mov    $0x3,%edi
  401883:	e8 0a 03 00 00       	callq  401b92 <validate>
  401888:	bf 00 00 00 00       	mov    $0x0,%edi
  40188d:	e8 1e f5 ff ff       	callq  400db0 <exit@plt>
  401892:	48 89 de             	mov    %rbx,%rsi
  401895:	48 8d 3d 0c 17 00 00 	lea    0x170c(%rip),%rdi        # 402fa8 <_IO_stdin_used+0x368>
  40189c:	b8 00 00 00 00       	mov    $0x0,%eax
  4018a1:	e8 ba f3 ff ff       	callq  400c60 <printf@plt>
  4018a6:	bf 03 00 00 00       	mov    $0x3,%edi
  4018ab:	e8 a0 03 00 00       	callq  401c50 <fail>
  4018b0:	eb d6                	jmp    401888 <touch3+0x3e>

00000000004018b2 <test>:
  4018b2:	48 83 ec 08          	sub    $0x8,%rsp
  4018b6:	b8 00 00 00 00       	mov    $0x0,%eax
  4018bb:	e8 6b fe ff ff       	callq  40172b <getbuf>
  4018c0:	89 c6                	mov    %eax,%esi
  4018c2:	48 8d 3d 07 17 00 00 	lea    0x1707(%rip),%rdi        # 402fd0 <_IO_stdin_used+0x390>
  4018c9:	b8 00 00 00 00       	mov    $0x0,%eax
  4018ce:	e8 8d f3 ff ff       	callq  400c60 <printf@plt>
  4018d3:	48 83 c4 08          	add    $0x8,%rsp
  4018d7:	c3                   	retq   

00000000004018d8 <save_char>:
  4018d8:	8b 05 46 38 20 00    	mov    0x203846(%rip),%eax        # 605124 <gets_cnt>
  4018de:	3d ff 03 00 00       	cmp    $0x3ff,%eax
  4018e3:	7f 4a                	jg     40192f <save_char+0x57>
  4018e5:	8d 14 40             	lea    (%rax,%rax,2),%edx
  4018e8:	89 f9                	mov    %edi,%ecx
  4018ea:	c0 e9 04             	shr    $0x4,%cl
  4018ed:	4c 8d 05 fc 19 00 00 	lea    0x19fc(%rip),%r8        # 4032f0 <trans_char>
  4018f4:	83 e1 0f             	and    $0xf,%ecx
  4018f7:	45 0f b6 0c 08       	movzbl (%r8,%rcx,1),%r9d
  4018fc:	48 8d 0d 1d 2c 20 00 	lea    0x202c1d(%rip),%rcx        # 604520 <gets_buf>
  401903:	48 63 f2             	movslq %edx,%rsi
  401906:	44 88 0c 31          	mov    %r9b,(%rcx,%rsi,1)
  40190a:	8d 72 01             	lea    0x1(%rdx),%esi
  40190d:	83 e7 0f             	and    $0xf,%edi
  401910:	41 0f b6 3c 38       	movzbl (%r8,%rdi,1),%edi
  401915:	48 63 f6             	movslq %esi,%rsi
  401918:	40 88 3c 31          	mov    %dil,(%rcx,%rsi,1)
  40191c:	83 c2 02             	add    $0x2,%edx
  40191f:	48 63 d2             	movslq %edx,%rdx
  401922:	c6 04 11 20          	movb   $0x20,(%rcx,%rdx,1)
  401926:	83 c0 01             	add    $0x1,%eax
  401929:	89 05 f5 37 20 00    	mov    %eax,0x2037f5(%rip)        # 605124 <gets_cnt>
  40192f:	f3 c3                	repz retq 

0000000000401931 <save_term>:
  401931:	8b 05 ed 37 20 00    	mov    0x2037ed(%rip),%eax        # 605124 <gets_cnt>
  401937:	8d 04 40             	lea    (%rax,%rax,2),%eax
  40193a:	48 98                	cltq   
  40193c:	48 8d 15 dd 2b 20 00 	lea    0x202bdd(%rip),%rdx        # 604520 <gets_buf>
  401943:	c6 04 02 00          	movb   $0x0,(%rdx,%rax,1)
  401947:	c3                   	retq   

0000000000401948 <check_fail>:
  401948:	48 83 ec 08          	sub    $0x8,%rsp
  40194c:	0f be 35 d5 37 20 00 	movsbl 0x2037d5(%rip),%esi        # 605128 <target_prefix>
  401953:	48 8d 0d c6 2b 20 00 	lea    0x202bc6(%rip),%rcx        # 604520 <gets_buf>
  40195a:	8b 15 98 2b 20 00    	mov    0x202b98(%rip),%edx        # 6044f8 <check_level>
  401960:	48 8d 3d 8c 16 00 00 	lea    0x168c(%rip),%rdi        # 402ff3 <_IO_stdin_used+0x3b3>
  401967:	b8 00 00 00 00       	mov    $0x0,%eax
  40196c:	e8 ef f2 ff ff       	callq  400c60 <printf@plt>
  401971:	bf 01 00 00 00       	mov    $0x1,%edi
  401976:	e8 35 f4 ff ff       	callq  400db0 <exit@plt>

000000000040197b <Gets>:
  40197b:	41 54                	push   %r12
  40197d:	55                   	push   %rbp
  40197e:	53                   	push   %rbx
  40197f:	49 89 fc             	mov    %rdi,%r12
  401982:	c7 05 98 37 20 00 00 	movl   $0x0,0x203798(%rip)        # 605124 <gets_cnt>
  401989:	00 00 00 
  40198c:	48 89 fb             	mov    %rdi,%rbx
  40198f:	eb 11                	jmp    4019a2 <Gets+0x27>
  401991:	48 8d 6b 01          	lea    0x1(%rbx),%rbp
  401995:	88 03                	mov    %al,(%rbx)
  401997:	0f b6 f8             	movzbl %al,%edi
  40199a:	e8 39 ff ff ff       	callq  4018d8 <save_char>
  40199f:	48 89 eb             	mov    %rbp,%rbx
  4019a2:	48 8b 3d 47 2b 20 00 	mov    0x202b47(%rip),%rdi        # 6044f0 <infile>
  4019a9:	e8 72 f3 ff ff       	callq  400d20 <_IO_getc@plt>
  4019ae:	83 f8 ff             	cmp    $0xffffffff,%eax
  4019b1:	74 05                	je     4019b8 <Gets+0x3d>
  4019b3:	83 f8 0a             	cmp    $0xa,%eax
  4019b6:	75 d9                	jne    401991 <Gets+0x16>
  4019b8:	c6 03 00             	movb   $0x0,(%rbx)
  4019bb:	b8 00 00 00 00       	mov    $0x0,%eax
  4019c0:	e8 6c ff ff ff       	callq  401931 <save_term>
  4019c5:	4c 89 e0             	mov    %r12,%rax
  4019c8:	5b                   	pop    %rbx
  4019c9:	5d                   	pop    %rbp
  4019ca:	41 5c                	pop    %r12
  4019cc:	c3                   	retq   

00000000004019cd <notify_server>:
  4019cd:	83 3d 34 2b 20 00 00 	cmpl   $0x0,0x202b34(%rip)        # 604508 <is_checker>
  4019d4:	0f 85 de 00 00 00    	jne    401ab8 <notify_server+0xeb>
  4019da:	55                   	push   %rbp
  4019db:	53                   	push   %rbx
  4019dc:	48 81 ec 08 40 00 00 	sub    $0x4008,%rsp
  4019e3:	89 fb                	mov    %edi,%ebx
  4019e5:	8b 05 39 37 20 00    	mov    0x203739(%rip),%eax        # 605124 <gets_cnt>
  4019eb:	83 c0 64             	add    $0x64,%eax
  4019ee:	3d 00 20 00 00       	cmp    $0x2000,%eax
  4019f3:	0f 8f c1 00 00 00    	jg     401aba <notify_server+0xed>
  4019f9:	44 0f be 0d 27 37 20 	movsbl 0x203727(%rip),%r9d        # 605128 <target_prefix>
  401a00:	00 
  401a01:	83 3d 80 2a 20 00 00 	cmpl   $0x0,0x202a80(%rip)        # 604488 <notify>
  401a08:	0f 84 c7 00 00 00    	je     401ad5 <notify_server+0x108>
  401a0e:	44 8b 05 eb 2a 20 00 	mov    0x202aeb(%rip),%r8d        # 604500 <authkey>
  401a15:	85 db                	test   %ebx,%ebx
  401a17:	0f 84 c3 00 00 00    	je     401ae0 <notify_server+0x113>
  401a1d:	48 8d 2d e5 15 00 00 	lea    0x15e5(%rip),%rbp        # 403009 <_IO_stdin_used+0x3c9>
  401a24:	48 8d bc 24 00 20 00 	lea    0x2000(%rsp),%rdi
  401a2b:	00 
  401a2c:	48 8d 05 ed 2a 20 00 	lea    0x202aed(%rip),%rax        # 604520 <gets_buf>
  401a33:	50                   	push   %rax
  401a34:	56                   	push   %rsi
  401a35:	48 89 e9             	mov    %rbp,%rcx
  401a38:	8b 15 f2 26 20 00    	mov    0x2026f2(%rip),%edx        # 604130 <target_id>
  401a3e:	48 8d 35 ce 15 00 00 	lea    0x15ce(%rip),%rsi        # 403013 <_IO_stdin_used+0x3d3>
  401a45:	b8 00 00 00 00       	mov    $0x0,%eax
  401a4a:	e8 51 f3 ff ff       	callq  400da0 <sprintf@plt>
  401a4f:	48 83 c4 10          	add    $0x10,%rsp
  401a53:	83 3d 2e 2a 20 00 00 	cmpl   $0x0,0x202a2e(%rip)        # 604488 <notify>
  401a5a:	0f 84 b8 00 00 00    	je     401b18 <notify_server+0x14b>
  401a60:	85 db                	test   %ebx,%ebx
  401a62:	0f 84 a2 00 00 00    	je     401b0a <notify_server+0x13d>
  401a68:	48 8d 8c 24 00 20 00 	lea    0x2000(%rsp),%rcx
  401a6f:	00 
  401a70:	49 89 e1             	mov    %rsp,%r9
  401a73:	41 b8 00 00 00 00    	mov    $0x0,%r8d
  401a79:	48 8b 15 c8 26 20 00 	mov    0x2026c8(%rip),%rdx        # 604148 <lab>
  401a80:	48 8b 35 c9 26 20 00 	mov    0x2026c9(%rip),%rsi        # 604150 <course>
  401a87:	48 8b 3d b2 26 20 00 	mov    0x2026b2(%rip),%rdi        # 604140 <user_id>
  401a8e:	e8 6e 10 00 00       	callq  402b01 <driver_post>
  401a93:	85 c0                	test   %eax,%eax
  401a95:	78 55                	js     401aec <notify_server+0x11f>
  401a97:	48 8d 3d ba 16 00 00 	lea    0x16ba(%rip),%rdi        # 403158 <_IO_stdin_used+0x518>
  401a9e:	e8 8d f1 ff ff       	callq  400c30 <puts@plt>
  401aa3:	48 8d 3d 91 15 00 00 	lea    0x1591(%rip),%rdi        # 40303b <_IO_stdin_used+0x3fb>
  401aaa:	e8 81 f1 ff ff       	callq  400c30 <puts@plt>
  401aaf:	48 81 c4 08 40 00 00 	add    $0x4008,%rsp
  401ab6:	5b                   	pop    %rbx
  401ab7:	5d                   	pop    %rbp
  401ab8:	f3 c3                	repz retq 
  401aba:	48 8d 3d 67 16 00 00 	lea    0x1667(%rip),%rdi        # 403128 <_IO_stdin_used+0x4e8>
  401ac1:	b8 00 00 00 00       	mov    $0x0,%eax
  401ac6:	e8 95 f1 ff ff       	callq  400c60 <printf@plt>
  401acb:	bf 01 00 00 00       	mov    $0x1,%edi
  401ad0:	e8 db f2 ff ff       	callq  400db0 <exit@plt>
  401ad5:	41 b8 ff ff ff ff    	mov    $0xffffffff,%r8d
  401adb:	e9 35 ff ff ff       	jmpq   401a15 <notify_server+0x48>
  401ae0:	48 8d 2d 27 15 00 00 	lea    0x1527(%rip),%rbp        # 40300e <_IO_stdin_used+0x3ce>
  401ae7:	e9 38 ff ff ff       	jmpq   401a24 <notify_server+0x57>
  401aec:	48 89 e6             	mov    %rsp,%rsi
  401aef:	48 8d 3d 39 15 00 00 	lea    0x1539(%rip),%rdi        # 40302f <_IO_stdin_used+0x3ef>
  401af6:	b8 00 00 00 00       	mov    $0x0,%eax
  401afb:	e8 60 f1 ff ff       	callq  400c60 <printf@plt>
  401b00:	bf 01 00 00 00       	mov    $0x1,%edi
  401b05:	e8 a6 f2 ff ff       	callq  400db0 <exit@plt>
  401b0a:	48 8d 3d 34 15 00 00 	lea    0x1534(%rip),%rdi        # 403045 <_IO_stdin_used+0x405>
  401b11:	e8 1a f1 ff ff       	callq  400c30 <puts@plt>
  401b16:	eb 97                	jmp    401aaf <notify_server+0xe2>
  401b18:	48 89 ee             	mov    %rbp,%rsi
  401b1b:	48 8d 3d 6e 16 00 00 	lea    0x166e(%rip),%rdi        # 403190 <_IO_stdin_used+0x550>
  401b22:	b8 00 00 00 00       	mov    $0x0,%eax
  401b27:	e8 34 f1 ff ff       	callq  400c60 <printf@plt>
  401b2c:	48 8b 35 0d 26 20 00 	mov    0x20260d(%rip),%rsi        # 604140 <user_id>
  401b33:	48 8d 3d 12 15 00 00 	lea    0x1512(%rip),%rdi        # 40304c <_IO_stdin_used+0x40c>
  401b3a:	b8 00 00 00 00       	mov    $0x0,%eax
  401b3f:	e8 1c f1 ff ff       	callq  400c60 <printf@plt>
  401b44:	48 8b 35 05 26 20 00 	mov    0x202605(%rip),%rsi        # 604150 <course>
  401b4b:	48 8d 3d 07 15 00 00 	lea    0x1507(%rip),%rdi        # 403059 <_IO_stdin_used+0x419>
  401b52:	b8 00 00 00 00       	mov    $0x0,%eax
  401b57:	e8 04 f1 ff ff       	callq  400c60 <printf@plt>
  401b5c:	48 8b 35 e5 25 20 00 	mov    0x2025e5(%rip),%rsi        # 604148 <lab>
  401b63:	48 8d 3d fb 14 00 00 	lea    0x14fb(%rip),%rdi        # 403065 <_IO_stdin_used+0x425>
  401b6a:	b8 00 00 00 00       	mov    $0x0,%eax
  401b6f:	e8 ec f0 ff ff       	callq  400c60 <printf@plt>
  401b74:	48 8d b4 24 00 20 00 	lea    0x2000(%rsp),%rsi
  401b7b:	00 
  401b7c:	48 8d 3d eb 14 00 00 	lea    0x14eb(%rip),%rdi        # 40306e <_IO_stdin_used+0x42e>
  401b83:	b8 00 00 00 00       	mov    $0x0,%eax
  401b88:	e8 d3 f0 ff ff       	callq  400c60 <printf@plt>
  401b8d:	e9 1d ff ff ff       	jmpq   401aaf <notify_server+0xe2>

0000000000401b92 <validate>:
  401b92:	53                   	push   %rbx
  401b93:	89 fb                	mov    %edi,%ebx
  401b95:	83 3d 6c 29 20 00 00 	cmpl   $0x0,0x20296c(%rip)        # 604508 <is_checker>
  401b9c:	74 68                	je     401c06 <validate+0x74>
  401b9e:	39 3d 58 29 20 00    	cmp    %edi,0x202958(%rip)        # 6044fc <vlevel>
  401ba4:	75 2d                	jne    401bd3 <validate+0x41>
  401ba6:	8b 35 4c 29 20 00    	mov    0x20294c(%rip),%esi        # 6044f8 <check_level>
  401bac:	39 f7                	cmp    %esi,%edi
  401bae:	75 39                	jne    401be9 <validate+0x57>
  401bb0:	0f be 35 71 35 20 00 	movsbl 0x203571(%rip),%esi        # 605128 <target_prefix>
  401bb7:	48 8d 0d 62 29 20 00 	lea    0x202962(%rip),%rcx        # 604520 <gets_buf>
  401bbe:	89 fa                	mov    %edi,%edx
  401bc0:	48 8d 3d d1 14 00 00 	lea    0x14d1(%rip),%rdi        # 403098 <_IO_stdin_used+0x458>
  401bc7:	b8 00 00 00 00       	mov    $0x0,%eax
  401bcc:	e8 8f f0 ff ff       	callq  400c60 <printf@plt>
  401bd1:	5b                   	pop    %rbx
  401bd2:	c3                   	retq   
  401bd3:	48 8d 3d a0 14 00 00 	lea    0x14a0(%rip),%rdi        # 40307a <_IO_stdin_used+0x43a>
  401bda:	e8 51 f0 ff ff       	callq  400c30 <puts@plt>
  401bdf:	b8 00 00 00 00       	mov    $0x0,%eax
  401be4:	e8 5f fd ff ff       	callq  401948 <check_fail>
  401be9:	89 fa                	mov    %edi,%edx
  401beb:	48 8d 3d c6 15 00 00 	lea    0x15c6(%rip),%rdi        # 4031b8 <_IO_stdin_used+0x578>
  401bf2:	b8 00 00 00 00       	mov    $0x0,%eax
  401bf7:	e8 64 f0 ff ff       	callq  400c60 <printf@plt>
  401bfc:	b8 00 00 00 00       	mov    $0x0,%eax
  401c01:	e8 42 fd ff ff       	callq  401948 <check_fail>
  401c06:	3b 3d f0 28 20 00    	cmp    0x2028f0(%rip),%edi        # 6044fc <vlevel>
  401c0c:	74 1a                	je     401c28 <validate+0x96>
  401c0e:	48 8d 3d 65 14 00 00 	lea    0x1465(%rip),%rdi        # 40307a <_IO_stdin_used+0x43a>
  401c15:	e8 16 f0 ff ff       	callq  400c30 <puts@plt>
  401c1a:	89 de                	mov    %ebx,%esi
  401c1c:	bf 00 00 00 00       	mov    $0x0,%edi
  401c21:	e8 a7 fd ff ff       	callq  4019cd <notify_server>
  401c26:	eb a9                	jmp    401bd1 <validate+0x3f>
  401c28:	0f be 15 f9 34 20 00 	movsbl 0x2034f9(%rip),%edx        # 605128 <target_prefix>
  401c2f:	89 fe                	mov    %edi,%esi
  401c31:	48 8d 3d a8 15 00 00 	lea    0x15a8(%rip),%rdi        # 4031e0 <_IO_stdin_used+0x5a0>
  401c38:	b8 00 00 00 00       	mov    $0x0,%eax
  401c3d:	e8 1e f0 ff ff       	callq  400c60 <printf@plt>
  401c42:	89 de                	mov    %ebx,%esi
  401c44:	bf 01 00 00 00       	mov    $0x1,%edi
  401c49:	e8 7f fd ff ff       	callq  4019cd <notify_server>
  401c4e:	eb 81                	jmp    401bd1 <validate+0x3f>

0000000000401c50 <fail>:
  401c50:	48 83 ec 08          	sub    $0x8,%rsp
  401c54:	83 3d ad 28 20 00 00 	cmpl   $0x0,0x2028ad(%rip)        # 604508 <is_checker>
  401c5b:	75 11                	jne    401c6e <fail+0x1e>
  401c5d:	89 fe                	mov    %edi,%esi
  401c5f:	bf 00 00 00 00       	mov    $0x0,%edi
  401c64:	e8 64 fd ff ff       	callq  4019cd <notify_server>
  401c69:	48 83 c4 08          	add    $0x8,%rsp
  401c6d:	c3                   	retq   
  401c6e:	b8 00 00 00 00       	mov    $0x0,%eax
  401c73:	e8 d0 fc ff ff       	callq  401948 <check_fail>

0000000000401c78 <bushandler>:
  401c78:	48 83 ec 08          	sub    $0x8,%rsp
  401c7c:	83 3d 85 28 20 00 00 	cmpl   $0x0,0x202885(%rip)        # 604508 <is_checker>
  401c83:	74 16                	je     401c9b <bushandler+0x23>
  401c85:	48 8d 3d 21 14 00 00 	lea    0x1421(%rip),%rdi        # 4030ad <_IO_stdin_used+0x46d>
  401c8c:	e8 9f ef ff ff       	callq  400c30 <puts@plt>
  401c91:	b8 00 00 00 00       	mov    $0x0,%eax
  401c96:	e8 ad fc ff ff       	callq  401948 <check_fail>
  401c9b:	48 8d 3d 76 15 00 00 	lea    0x1576(%rip),%rdi        # 403218 <_IO_stdin_used+0x5d8>
  401ca2:	e8 89 ef ff ff       	callq  400c30 <puts@plt>
  401ca7:	48 8d 3d 09 14 00 00 	lea    0x1409(%rip),%rdi        # 4030b7 <_IO_stdin_used+0x477>
  401cae:	e8 7d ef ff ff       	callq  400c30 <puts@plt>
  401cb3:	be 00 00 00 00       	mov    $0x0,%esi
  401cb8:	bf 00 00 00 00       	mov    $0x0,%edi
  401cbd:	e8 0b fd ff ff       	callq  4019cd <notify_server>
  401cc2:	bf 01 00 00 00       	mov    $0x1,%edi
  401cc7:	e8 e4 f0 ff ff       	callq  400db0 <exit@plt>

0000000000401ccc <seghandler>:
  401ccc:	48 83 ec 08          	sub    $0x8,%rsp
  401cd0:	83 3d 31 28 20 00 00 	cmpl   $0x0,0x202831(%rip)        # 604508 <is_checker>
  401cd7:	74 16                	je     401cef <seghandler+0x23>
  401cd9:	48 8d 3d ed 13 00 00 	lea    0x13ed(%rip),%rdi        # 4030cd <_IO_stdin_used+0x48d>
  401ce0:	e8 4b ef ff ff       	callq  400c30 <puts@plt>
  401ce5:	b8 00 00 00 00       	mov    $0x0,%eax
  401cea:	e8 59 fc ff ff       	callq  401948 <check_fail>
  401cef:	48 8d 3d 42 15 00 00 	lea    0x1542(%rip),%rdi        # 403238 <_IO_stdin_used+0x5f8>
  401cf6:	e8 35 ef ff ff       	callq  400c30 <puts@plt>
  401cfb:	48 8d 3d b5 13 00 00 	lea    0x13b5(%rip),%rdi        # 4030b7 <_IO_stdin_used+0x477>
  401d02:	e8 29 ef ff ff       	callq  400c30 <puts@plt>
  401d07:	be 00 00 00 00       	mov    $0x0,%esi
  401d0c:	bf 00 00 00 00       	mov    $0x0,%edi
  401d11:	e8 b7 fc ff ff       	callq  4019cd <notify_server>
  401d16:	bf 01 00 00 00       	mov    $0x1,%edi
  401d1b:	e8 90 f0 ff ff       	callq  400db0 <exit@plt>

0000000000401d20 <illegalhandler>:
  401d20:	48 83 ec 08          	sub    $0x8,%rsp
  401d24:	83 3d dd 27 20 00 00 	cmpl   $0x0,0x2027dd(%rip)        # 604508 <is_checker>
  401d2b:	74 16                	je     401d43 <illegalhandler+0x23>
  401d2d:	48 8d 3d ac 13 00 00 	lea    0x13ac(%rip),%rdi        # 4030e0 <_IO_stdin_used+0x4a0>
  401d34:	e8 f7 ee ff ff       	callq  400c30 <puts@plt>
  401d39:	b8 00 00 00 00       	mov    $0x0,%eax
  401d3e:	e8 05 fc ff ff       	callq  401948 <check_fail>
  401d43:	48 8d 3d 16 15 00 00 	lea    0x1516(%rip),%rdi        # 403260 <_IO_stdin_used+0x620>
  401d4a:	e8 e1 ee ff ff       	callq  400c30 <puts@plt>
  401d4f:	48 8d 3d 61 13 00 00 	lea    0x1361(%rip),%rdi        # 4030b7 <_IO_stdin_used+0x477>
  401d56:	e8 d5 ee ff ff       	callq  400c30 <puts@plt>
  401d5b:	be 00 00 00 00       	mov    $0x0,%esi
  401d60:	bf 00 00 00 00       	mov    $0x0,%edi
  401d65:	e8 63 fc ff ff       	callq  4019cd <notify_server>
  401d6a:	bf 01 00 00 00       	mov    $0x1,%edi
  401d6f:	e8 3c f0 ff ff       	callq  400db0 <exit@plt>

0000000000401d74 <sigalrmhandler>:
  401d74:	48 83 ec 08          	sub    $0x8,%rsp
  401d78:	83 3d 89 27 20 00 00 	cmpl   $0x0,0x202789(%rip)        # 604508 <is_checker>
  401d7f:	74 16                	je     401d97 <sigalrmhandler+0x23>
  401d81:	48 8d 3d 6c 13 00 00 	lea    0x136c(%rip),%rdi        # 4030f4 <_IO_stdin_used+0x4b4>
  401d88:	e8 a3 ee ff ff       	callq  400c30 <puts@plt>
  401d8d:	b8 00 00 00 00       	mov    $0x0,%eax
  401d92:	e8 b1 fb ff ff       	callq  401948 <check_fail>
  401d97:	be 05 00 00 00       	mov    $0x5,%esi
  401d9c:	48 8d 3d ed 14 00 00 	lea    0x14ed(%rip),%rdi        # 403290 <_IO_stdin_used+0x650>
  401da3:	b8 00 00 00 00       	mov    $0x0,%eax
  401da8:	e8 b3 ee ff ff       	callq  400c60 <printf@plt>
  401dad:	be 00 00 00 00       	mov    $0x0,%esi
  401db2:	bf 00 00 00 00       	mov    $0x0,%edi
  401db7:	e8 11 fc ff ff       	callq  4019cd <notify_server>
  401dbc:	bf 01 00 00 00       	mov    $0x1,%edi
  401dc1:	e8 ea ef ff ff       	callq  400db0 <exit@plt>

0000000000401dc6 <launch>:
  401dc6:	55                   	push   %rbp
  401dc7:	48 89 e5             	mov    %rsp,%rbp
  401dca:	48 89 fa             	mov    %rdi,%rdx
  401dcd:	48 8d 47 1e          	lea    0x1e(%rdi),%rax
  401dd1:	48 83 e0 f0          	and    $0xfffffffffffffff0,%rax
  401dd5:	48 29 c4             	sub    %rax,%rsp
  401dd8:	48 8d 7c 24 0f       	lea    0xf(%rsp),%rdi
  401ddd:	48 83 e7 f0          	and    $0xfffffffffffffff0,%rdi
  401de1:	be f4 00 00 00       	mov    $0xf4,%esi
  401de6:	e8 85 ee ff ff       	callq  400c70 <memset@plt>
  401deb:	48 8b 05 ae 26 20 00 	mov    0x2026ae(%rip),%rax        # 6044a0 <stdin@@GLIBC_2.2.5>
  401df2:	48 39 05 f7 26 20 00 	cmp    %rax,0x2026f7(%rip)        # 6044f0 <infile>
  401df9:	74 2b                	je     401e26 <launch+0x60>
  401dfb:	c7 05 f7 26 20 00 00 	movl   $0x0,0x2026f7(%rip)        # 6044fc <vlevel>
  401e02:	00 00 00 
  401e05:	b8 00 00 00 00       	mov    $0x0,%eax
  401e0a:	e8 a3 fa ff ff       	callq  4018b2 <test>
  401e0f:	83 3d f2 26 20 00 00 	cmpl   $0x0,0x2026f2(%rip)        # 604508 <is_checker>
  401e16:	75 21                	jne    401e39 <launch+0x73>
  401e18:	48 8d 3d f5 12 00 00 	lea    0x12f5(%rip),%rdi        # 403114 <_IO_stdin_used+0x4d4>
  401e1f:	e8 0c ee ff ff       	callq  400c30 <puts@plt>
  401e24:	c9                   	leaveq 
  401e25:	c3                   	retq   
  401e26:	48 8d 3d cf 12 00 00 	lea    0x12cf(%rip),%rdi        # 4030fc <_IO_stdin_used+0x4bc>
  401e2d:	b8 00 00 00 00       	mov    $0x0,%eax
  401e32:	e8 29 ee ff ff       	callq  400c60 <printf@plt>
  401e37:	eb c2                	jmp    401dfb <launch+0x35>
  401e39:	48 8d 3d c9 12 00 00 	lea    0x12c9(%rip),%rdi        # 403109 <_IO_stdin_used+0x4c9>
  401e40:	e8 eb ed ff ff       	callq  400c30 <puts@plt>
  401e45:	b8 00 00 00 00       	mov    $0x0,%eax
  401e4a:	e8 f9 fa ff ff       	callq  401948 <check_fail>

0000000000401e4f <stable_launch>:
  401e4f:	53                   	push   %rbx
  401e50:	48 89 3d 91 26 20 00 	mov    %rdi,0x202691(%rip)        # 6044e8 <global_offset>
  401e57:	41 b9 00 00 00 00    	mov    $0x0,%r9d
  401e5d:	41 b8 00 00 00 00    	mov    $0x0,%r8d
  401e63:	b9 32 01 00 00       	mov    $0x132,%ecx
  401e68:	ba 07 00 00 00       	mov    $0x7,%edx
  401e6d:	be 00 00 10 00       	mov    $0x100000,%esi
  401e72:	bf 00 60 58 55       	mov    $0x55586000,%edi
  401e77:	e8 d4 ed ff ff       	callq  400c50 <mmap@plt>
  401e7c:	48 89 c3             	mov    %rax,%rbx
  401e7f:	48 3d 00 60 58 55    	cmp    $0x55586000,%rax
  401e85:	75 43                	jne    401eca <stable_launch+0x7b>
  401e87:	48 8d 90 f8 ff 0f 00 	lea    0xffff8(%rax),%rdx
  401e8e:	48 89 15 9b 32 20 00 	mov    %rdx,0x20329b(%rip)        # 605130 <stack_top>
  401e95:	48 89 e0             	mov    %rsp,%rax
  401e98:	48 89 d4             	mov    %rdx,%rsp
  401e9b:	48 89 c2             	mov    %rax,%rdx
  401e9e:	48 89 15 3b 26 20 00 	mov    %rdx,0x20263b(%rip)        # 6044e0 <global_save_stack>
  401ea5:	48 8b 3d 3c 26 20 00 	mov    0x20263c(%rip),%rdi        # 6044e8 <global_offset>
  401eac:	e8 15 ff ff ff       	callq  401dc6 <launch>
  401eb1:	48 8b 05 28 26 20 00 	mov    0x202628(%rip),%rax        # 6044e0 <global_save_stack>
  401eb8:	48 89 c4             	mov    %rax,%rsp
  401ebb:	be 00 00 10 00       	mov    $0x100000,%esi
  401ec0:	48 89 df             	mov    %rbx,%rdi
  401ec3:	e8 78 ee ff ff       	callq  400d40 <munmap@plt>
  401ec8:	5b                   	pop    %rbx
  401ec9:	c3                   	retq   
  401eca:	be 00 00 10 00       	mov    $0x100000,%esi
  401ecf:	48 89 c7             	mov    %rax,%rdi
  401ed2:	e8 69 ee ff ff       	callq  400d40 <munmap@plt>
  401ed7:	ba 00 60 58 55       	mov    $0x55586000,%edx
  401edc:	48 8d 35 e5 13 00 00 	lea    0x13e5(%rip),%rsi        # 4032c8 <_IO_stdin_used+0x688>
  401ee3:	48 8b 3d d6 25 20 00 	mov    0x2025d6(%rip),%rdi        # 6044c0 <stderr@@GLIBC_2.2.5>
  401eea:	b8 00 00 00 00       	mov    $0x0,%eax
  401eef:	e8 dc ed ff ff       	callq  400cd0 <fprintf@plt>
  401ef4:	bf 01 00 00 00       	mov    $0x1,%edi
  401ef9:	e8 b2 ee ff ff       	callq  400db0 <exit@plt>

0000000000401efe <rio_readinitb>:
  401efe:	89 37                	mov    %esi,(%rdi)
  401f00:	c7 47 04 00 00 00 00 	movl   $0x0,0x4(%rdi)
  401f07:	48 8d 47 10          	lea    0x10(%rdi),%rax
  401f0b:	48 89 47 08          	mov    %rax,0x8(%rdi)
  401f0f:	c3                   	retq   

0000000000401f10 <sigalrm_handler>:
  401f10:	48 83 ec 08          	sub    $0x8,%rsp
  401f14:	ba 00 00 00 00       	mov    $0x0,%edx
  401f19:	48 8d 35 e0 13 00 00 	lea    0x13e0(%rip),%rsi        # 403300 <trans_char+0x10>
  401f20:	48 8b 3d 99 25 20 00 	mov    0x202599(%rip),%rdi        # 6044c0 <stderr@@GLIBC_2.2.5>
  401f27:	b8 00 00 00 00       	mov    $0x0,%eax
  401f2c:	e8 9f ed ff ff       	callq  400cd0 <fprintf@plt>
  401f31:	bf 01 00 00 00       	mov    $0x1,%edi
  401f36:	e8 75 ee ff ff       	callq  400db0 <exit@plt>

0000000000401f3b <urlencode>:
  401f3b:	41 54                	push   %r12
  401f3d:	55                   	push   %rbp
  401f3e:	53                   	push   %rbx
  401f3f:	48 83 ec 10          	sub    $0x10,%rsp
  401f43:	48 89 fb             	mov    %rdi,%rbx
  401f46:	48 89 f5             	mov    %rsi,%rbp
  401f49:	b8 00 00 00 00       	mov    $0x0,%eax
  401f4e:	48 c7 c1 ff ff ff ff 	mov    $0xffffffffffffffff,%rcx
  401f55:	f2 ae                	repnz scas %es:(%rdi),%al
  401f57:	48 f7 d1             	not    %rcx
  401f5a:	8d 41 ff             	lea    -0x1(%rcx),%eax
  401f5d:	eb 0e                	jmp    401f6d <urlencode+0x32>
  401f5f:	88 55 00             	mov    %dl,0x0(%rbp)
  401f62:	48 8d 6d 01          	lea    0x1(%rbp),%rbp
  401f66:	48 83 c3 01          	add    $0x1,%rbx
  401f6a:	44 89 e0             	mov    %r12d,%eax
  401f6d:	44 8d 60 ff          	lea    -0x1(%rax),%r12d
  401f71:	85 c0                	test   %eax,%eax
  401f73:	0f 84 95 00 00 00    	je     40200e <urlencode+0xd3>
  401f79:	0f b6 13             	movzbl (%rbx),%edx
  401f7c:	80 fa 2a             	cmp    $0x2a,%dl
  401f7f:	0f 94 c1             	sete   %cl
  401f82:	80 fa 2d             	cmp    $0x2d,%dl
  401f85:	0f 94 c0             	sete   %al
  401f88:	08 c1                	or     %al,%cl
  401f8a:	75 d3                	jne    401f5f <urlencode+0x24>
  401f8c:	80 fa 2e             	cmp    $0x2e,%dl
  401f8f:	74 ce                	je     401f5f <urlencode+0x24>
  401f91:	80 fa 5f             	cmp    $0x5f,%dl
  401f94:	74 c9                	je     401f5f <urlencode+0x24>
  401f96:	8d 42 d0             	lea    -0x30(%rdx),%eax
  401f99:	3c 09                	cmp    $0x9,%al
  401f9b:	76 c2                	jbe    401f5f <urlencode+0x24>
  401f9d:	8d 42 bf             	lea    -0x41(%rdx),%eax
  401fa0:	3c 19                	cmp    $0x19,%al
  401fa2:	76 bb                	jbe    401f5f <urlencode+0x24>
  401fa4:	8d 42 9f             	lea    -0x61(%rdx),%eax
  401fa7:	3c 19                	cmp    $0x19,%al
  401fa9:	76 b4                	jbe    401f5f <urlencode+0x24>
  401fab:	80 fa 20             	cmp    $0x20,%dl
  401fae:	74 4c                	je     401ffc <urlencode+0xc1>
  401fb0:	8d 42 e0             	lea    -0x20(%rdx),%eax
  401fb3:	3c 5f                	cmp    $0x5f,%al
  401fb5:	0f 96 c1             	setbe  %cl
  401fb8:	80 fa 09             	cmp    $0x9,%dl
  401fbb:	0f 94 c0             	sete   %al
  401fbe:	08 c1                	or     %al,%cl
  401fc0:	74 47                	je     402009 <urlencode+0xce>
  401fc2:	0f b6 d2             	movzbl %dl,%edx
  401fc5:	48 8d 7c 24 08       	lea    0x8(%rsp),%rdi
  401fca:	48 8d 35 c7 13 00 00 	lea    0x13c7(%rip),%rsi        # 403398 <trans_char+0xa8>
  401fd1:	b8 00 00 00 00       	mov    $0x0,%eax
  401fd6:	e8 c5 ed ff ff       	callq  400da0 <sprintf@plt>
  401fdb:	0f b6 44 24 08       	movzbl 0x8(%rsp),%eax
  401fe0:	88 45 00             	mov    %al,0x0(%rbp)
  401fe3:	0f b6 44 24 09       	movzbl 0x9(%rsp),%eax
  401fe8:	88 45 01             	mov    %al,0x1(%rbp)
  401feb:	0f b6 44 24 0a       	movzbl 0xa(%rsp),%eax
  401ff0:	88 45 02             	mov    %al,0x2(%rbp)
  401ff3:	48 8d 6d 03          	lea    0x3(%rbp),%rbp
  401ff7:	e9 6a ff ff ff       	jmpq   401f66 <urlencode+0x2b>
  401ffc:	c6 45 00 2b          	movb   $0x2b,0x0(%rbp)
  402000:	48 8d 6d 01          	lea    0x1(%rbp),%rbp
  402004:	e9 5d ff ff ff       	jmpq   401f66 <urlencode+0x2b>
  402009:	b8 ff ff ff ff       	mov    $0xffffffff,%eax
  40200e:	48 83 c4 10          	add    $0x10,%rsp
  402012:	5b                   	pop    %rbx
  402013:	5d                   	pop    %rbp
  402014:	41 5c                	pop    %r12
  402016:	c3                   	retq   

0000000000402017 <rio_writen>:
  402017:	41 55                	push   %r13
  402019:	41 54                	push   %r12
  40201b:	55                   	push   %rbp
  40201c:	53                   	push   %rbx
  40201d:	48 83 ec 08          	sub    $0x8,%rsp
  402021:	41 89 fc             	mov    %edi,%r12d
  402024:	49 89 d5             	mov    %rdx,%r13
  402027:	48 89 f5             	mov    %rsi,%rbp
  40202a:	48 89 d3             	mov    %rdx,%rbx
  40202d:	eb 06                	jmp    402035 <rio_writen+0x1e>
  40202f:	48 29 c3             	sub    %rax,%rbx
  402032:	48 01 c5             	add    %rax,%rbp
  402035:	48 85 db             	test   %rbx,%rbx
  402038:	74 24                	je     40205e <rio_writen+0x47>
  40203a:	48 89 da             	mov    %rbx,%rdx
  40203d:	48 89 ee             	mov    %rbp,%rsi
  402040:	44 89 e7             	mov    %r12d,%edi
  402043:	e8 f8 eb ff ff       	callq  400c40 <write@plt>
  402048:	48 85 c0             	test   %rax,%rax
  40204b:	7f e2                	jg     40202f <rio_writen+0x18>
  40204d:	e8 9e eb ff ff       	callq  400bf0 <__errno_location@plt>
  402052:	83 38 04             	cmpl   $0x4,(%rax)
  402055:	75 15                	jne    40206c <rio_writen+0x55>
  402057:	b8 00 00 00 00       	mov    $0x0,%eax
  40205c:	eb d1                	jmp    40202f <rio_writen+0x18>
  40205e:	4c 89 e8             	mov    %r13,%rax
  402061:	48 83 c4 08          	add    $0x8,%rsp
  402065:	5b                   	pop    %rbx
  402066:	5d                   	pop    %rbp
  402067:	41 5c                	pop    %r12
  402069:	41 5d                	pop    %r13
  40206b:	c3                   	retq   
  40206c:	48 c7 c0 ff ff ff ff 	mov    $0xffffffffffffffff,%rax
  402073:	eb ec                	jmp    402061 <rio_writen+0x4a>

0000000000402075 <rio_read>:
  402075:	41 55                	push   %r13
  402077:	41 54                	push   %r12
  402079:	55                   	push   %rbp
  40207a:	53                   	push   %rbx
  40207b:	48 83 ec 08          	sub    $0x8,%rsp
  40207f:	48 89 fb             	mov    %rdi,%rbx
  402082:	49 89 f5             	mov    %rsi,%r13
  402085:	49 89 d4             	mov    %rdx,%r12
  402088:	eb 0a                	jmp    402094 <rio_read+0x1f>
  40208a:	e8 61 eb ff ff       	callq  400bf0 <__errno_location@plt>
  40208f:	83 38 04             	cmpl   $0x4,(%rax)
  402092:	75 5c                	jne    4020f0 <rio_read+0x7b>
  402094:	8b 6b 04             	mov    0x4(%rbx),%ebp
  402097:	85 ed                	test   %ebp,%ebp
  402099:	7f 24                	jg     4020bf <rio_read+0x4a>
  40209b:	48 8d 6b 10          	lea    0x10(%rbx),%rbp
  40209f:	ba 00 20 00 00       	mov    $0x2000,%edx
  4020a4:	48 89 ee             	mov    %rbp,%rsi
  4020a7:	8b 3b                	mov    (%rbx),%edi
  4020a9:	e8 f2 eb ff ff       	callq  400ca0 <read@plt>
  4020ae:	89 43 04             	mov    %eax,0x4(%rbx)
  4020b1:	85 c0                	test   %eax,%eax
  4020b3:	78 d5                	js     40208a <rio_read+0x15>
  4020b5:	85 c0                	test   %eax,%eax
  4020b7:	74 40                	je     4020f9 <rio_read+0x84>
  4020b9:	48 89 6b 08          	mov    %rbp,0x8(%rbx)
  4020bd:	eb d5                	jmp    402094 <rio_read+0x1f>
  4020bf:	89 e8                	mov    %ebp,%eax
  4020c1:	49 39 c4             	cmp    %rax,%r12
  4020c4:	77 03                	ja     4020c9 <rio_read+0x54>
  4020c6:	44 89 e5             	mov    %r12d,%ebp
  4020c9:	4c 63 e5             	movslq %ebp,%r12
  4020cc:	48 8b 73 08          	mov    0x8(%rbx),%rsi
  4020d0:	4c 89 e2             	mov    %r12,%rdx
  4020d3:	4c 89 ef             	mov    %r13,%rdi
  4020d6:	e8 15 ec ff ff       	callq  400cf0 <memcpy@plt>
  4020db:	4c 01 63 08          	add    %r12,0x8(%rbx)
  4020df:	29 6b 04             	sub    %ebp,0x4(%rbx)
  4020e2:	4c 89 e0             	mov    %r12,%rax
  4020e5:	48 83 c4 08          	add    $0x8,%rsp
  4020e9:	5b                   	pop    %rbx
  4020ea:	5d                   	pop    %rbp
  4020eb:	41 5c                	pop    %r12
  4020ed:	41 5d                	pop    %r13
  4020ef:	c3                   	retq   
  4020f0:	48 c7 c0 ff ff ff ff 	mov    $0xffffffffffffffff,%rax
  4020f7:	eb ec                	jmp    4020e5 <rio_read+0x70>
  4020f9:	b8 00 00 00 00       	mov    $0x0,%eax
  4020fe:	eb e5                	jmp    4020e5 <rio_read+0x70>

0000000000402100 <rio_readlineb>:
  402100:	41 55                	push   %r13
  402102:	41 54                	push   %r12
  402104:	55                   	push   %rbp
  402105:	53                   	push   %rbx
  402106:	48 83 ec 18          	sub    $0x18,%rsp
  40210a:	49 89 fd             	mov    %rdi,%r13
  40210d:	49 89 d4             	mov    %rdx,%r12
  402110:	48 89 f5             	mov    %rsi,%rbp
  402113:	bb 01 00 00 00       	mov    $0x1,%ebx
  402118:	4c 39 e3             	cmp    %r12,%rbx
  40211b:	73 47                	jae    402164 <rio_readlineb+0x64>
  40211d:	48 8d 74 24 0f       	lea    0xf(%rsp),%rsi
  402122:	ba 01 00 00 00       	mov    $0x1,%edx
  402127:	4c 89 ef             	mov    %r13,%rdi
  40212a:	e8 46 ff ff ff       	callq  402075 <rio_read>
  40212f:	83 f8 01             	cmp    $0x1,%eax
  402132:	75 1c                	jne    402150 <rio_readlineb+0x50>
  402134:	48 8d 45 01          	lea    0x1(%rbp),%rax
  402138:	0f b6 54 24 0f       	movzbl 0xf(%rsp),%edx
  40213d:	88 55 00             	mov    %dl,0x0(%rbp)
  402140:	80 7c 24 0f 0a       	cmpb   $0xa,0xf(%rsp)
  402145:	74 1a                	je     402161 <rio_readlineb+0x61>
  402147:	48 83 c3 01          	add    $0x1,%rbx
  40214b:	48 89 c5             	mov    %rax,%rbp
  40214e:	eb c8                	jmp    402118 <rio_readlineb+0x18>
  402150:	85 c0                	test   %eax,%eax
  402152:	75 22                	jne    402176 <rio_readlineb+0x76>
  402154:	48 83 fb 01          	cmp    $0x1,%rbx
  402158:	75 0a                	jne    402164 <rio_readlineb+0x64>
  40215a:	b8 00 00 00 00       	mov    $0x0,%eax
  40215f:	eb 0a                	jmp    40216b <rio_readlineb+0x6b>
  402161:	48 89 c5             	mov    %rax,%rbp
  402164:	c6 45 00 00          	movb   $0x0,0x0(%rbp)
  402168:	48 89 d8             	mov    %rbx,%rax
  40216b:	48 83 c4 18          	add    $0x18,%rsp
  40216f:	5b                   	pop    %rbx
  402170:	5d                   	pop    %rbp
  402171:	41 5c                	pop    %r12
  402173:	41 5d                	pop    %r13
  402175:	c3                   	retq   
  402176:	48 c7 c0 ff ff ff ff 	mov    $0xffffffffffffffff,%rax
  40217d:	eb ec                	jmp    40216b <rio_readlineb+0x6b>

000000000040217f <submitr>:
  40217f:	41 57                	push   %r15
  402181:	41 56                	push   %r14
  402183:	41 55                	push   %r13
  402185:	41 54                	push   %r12
  402187:	55                   	push   %rbp
  402188:	53                   	push   %rbx
  402189:	48 81 ec 58 a0 00 00 	sub    $0xa058,%rsp
  402190:	49 89 fd             	mov    %rdi,%r13
  402193:	89 74 24 14          	mov    %esi,0x14(%rsp)
  402197:	49 89 d7             	mov    %rdx,%r15
  40219a:	48 89 4c 24 08       	mov    %rcx,0x8(%rsp)
  40219f:	4c 89 44 24 18       	mov    %r8,0x18(%rsp)
  4021a4:	4d 89 ce             	mov    %r9,%r14
  4021a7:	48 8b 9c 24 90 a0 00 	mov    0xa090(%rsp),%rbx
  4021ae:	00 
  4021af:	c7 84 24 2c 20 00 00 	movl   $0x0,0x202c(%rsp)
  4021b6:	00 00 00 00 
  4021ba:	ba 00 00 00 00       	mov    $0x0,%edx
  4021bf:	be 01 00 00 00       	mov    $0x1,%esi
  4021c4:	bf 02 00 00 00       	mov    $0x2,%edi
  4021c9:	e8 02 ec ff ff       	callq  400dd0 <socket@plt>
  4021ce:	85 c0                	test   %eax,%eax
  4021d0:	0f 88 ca 01 00 00    	js     4023a0 <submitr+0x221>
  4021d6:	89 c5                	mov    %eax,%ebp
  4021d8:	4c 89 ef             	mov    %r13,%rdi
  4021db:	e8 e0 ea ff ff       	callq  400cc0 <gethostbyname@plt>
  4021e0:	48 85 c0             	test   %rax,%rax
  4021e3:	0f 84 05 02 00 00    	je     4023ee <submitr+0x26f>
  4021e9:	4c 8d a4 24 40 a0 00 	lea    0xa040(%rsp),%r12
  4021f0:	00 
  4021f1:	48 c7 84 24 40 a0 00 	movq   $0x0,0xa040(%rsp)
  4021f8:	00 00 00 00 00 
  4021fd:	48 c7 84 24 48 a0 00 	movq   $0x0,0xa048(%rsp)
  402204:	00 00 00 00 00 
  402209:	66 c7 84 24 40 a0 00 	movw   $0x2,0xa040(%rsp)
  402210:	00 02 00 
  402213:	48 8b 48 18          	mov    0x18(%rax),%rcx
  402217:	48 63 50 14          	movslq 0x14(%rax),%rdx
  40221b:	48 8d b4 24 44 a0 00 	lea    0xa044(%rsp),%rsi
  402222:	00 
  402223:	48 8b 39             	mov    (%rcx),%rdi
  402226:	e8 25 eb ff ff       	callq  400d50 <bcopy@plt>
  40222b:	0f b7 44 24 14       	movzwl 0x14(%rsp),%eax
  402230:	66 c1 c8 08          	ror    $0x8,%ax
  402234:	66 89 84 24 42 a0 00 	mov    %ax,0xa042(%rsp)
  40223b:	00 
  40223c:	ba 10 00 00 00       	mov    $0x10,%edx
  402241:	4c 89 e6             	mov    %r12,%rsi
  402244:	89 ef                	mov    %ebp,%edi
  402246:	e8 75 eb ff ff       	callq  400dc0 <connect@plt>
  40224b:	85 c0                	test   %eax,%eax
  40224d:	0f 88 02 02 00 00    	js     402455 <submitr+0x2d6>
  402253:	48 c7 c6 ff ff ff ff 	mov    $0xffffffffffffffff,%rsi
  40225a:	b8 00 00 00 00       	mov    $0x0,%eax
  40225f:	48 89 f1             	mov    %rsi,%rcx
  402262:	4c 89 f7             	mov    %r14,%rdi
  402265:	f2 ae                	repnz scas %es:(%rdi),%al
  402267:	48 f7 d1             	not    %rcx
  40226a:	48 89 ca             	mov    %rcx,%rdx
  40226d:	48 89 f1             	mov    %rsi,%rcx
  402270:	4c 89 ff             	mov    %r15,%rdi
  402273:	f2 ae                	repnz scas %es:(%rdi),%al
  402275:	48 f7 d1             	not    %rcx
  402278:	49 89 c8             	mov    %rcx,%r8
  40227b:	48 89 f1             	mov    %rsi,%rcx
  40227e:	48 8b 7c 24 08       	mov    0x8(%rsp),%rdi
  402283:	f2 ae                	repnz scas %es:(%rdi),%al
  402285:	48 f7 d1             	not    %rcx
  402288:	4d 8d 44 08 fe       	lea    -0x2(%r8,%rcx,1),%r8
  40228d:	48 89 f1             	mov    %rsi,%rcx
  402290:	48 8b 7c 24 18       	mov    0x18(%rsp),%rdi
  402295:	f2 ae                	repnz scas %es:(%rdi),%al
  402297:	48 89 c8             	mov    %rcx,%rax
  40229a:	48 f7 d0             	not    %rax
  40229d:	49 8d 4c 00 ff       	lea    -0x1(%r8,%rax,1),%rcx
  4022a2:	48 8d 44 52 fd       	lea    -0x3(%rdx,%rdx,2),%rax
  4022a7:	48 8d 84 01 80 00 00 	lea    0x80(%rcx,%rax,1),%rax
  4022ae:	00 
  4022af:	48 3d 00 20 00 00    	cmp    $0x2000,%rax
  4022b5:	0f 87 f3 01 00 00    	ja     4024ae <submitr+0x32f>
  4022bb:	48 8d b4 24 30 40 00 	lea    0x4030(%rsp),%rsi
  4022c2:	00 
  4022c3:	b9 00 04 00 00       	mov    $0x400,%ecx
  4022c8:	b8 00 00 00 00       	mov    $0x0,%eax
  4022cd:	48 89 f7             	mov    %rsi,%rdi
  4022d0:	f3 48 ab             	rep stos %rax,%es:(%rdi)
  4022d3:	4c 89 f7             	mov    %r14,%rdi
  4022d6:	e8 60 fc ff ff       	callq  401f3b <urlencode>
  4022db:	85 c0                	test   %eax,%eax
  4022dd:	0f 88 3d 02 00 00    	js     402520 <submitr+0x3a1>
  4022e3:	4c 8d a4 24 30 60 00 	lea    0x6030(%rsp),%r12
  4022ea:	00 
  4022eb:	4d 89 e9             	mov    %r13,%r9
  4022ee:	4c 8d 84 24 30 40 00 	lea    0x4030(%rsp),%r8
  4022f5:	00 
  4022f6:	4c 89 f9             	mov    %r15,%rcx
  4022f9:	48 8b 54 24 08       	mov    0x8(%rsp),%rdx
  4022fe:	48 8d 35 23 10 00 00 	lea    0x1023(%rip),%rsi        # 403328 <trans_char+0x38>
  402305:	4c 89 e7             	mov    %r12,%rdi
  402308:	b8 00 00 00 00       	mov    $0x0,%eax
  40230d:	e8 8e ea ff ff       	callq  400da0 <sprintf@plt>
  402312:	b8 00 00 00 00       	mov    $0x0,%eax
  402317:	48 c7 c1 ff ff ff ff 	mov    $0xffffffffffffffff,%rcx
  40231e:	4c 89 e7             	mov    %r12,%rdi
  402321:	f2 ae                	repnz scas %es:(%rdi),%al
  402323:	48 f7 d1             	not    %rcx
  402326:	48 8d 51 ff          	lea    -0x1(%rcx),%rdx
  40232a:	4c 89 e6             	mov    %r12,%rsi
  40232d:	89 ef                	mov    %ebp,%edi
  40232f:	e8 e3 fc ff ff       	callq  402017 <rio_writen>
  402334:	48 85 c0             	test   %rax,%rax
  402337:	0f 88 6d 02 00 00    	js     4025aa <submitr+0x42b>
  40233d:	4c 8d a4 24 30 80 00 	lea    0x8030(%rsp),%r12
  402344:	00 
  402345:	89 ee                	mov    %ebp,%esi
  402347:	4c 89 e7             	mov    %r12,%rdi
  40234a:	e8 af fb ff ff       	callq  401efe <rio_readinitb>
  40234f:	48 8d b4 24 30 60 00 	lea    0x6030(%rsp),%rsi
  402356:	00 
  402357:	ba 00 20 00 00       	mov    $0x2000,%edx
  40235c:	4c 89 e7             	mov    %r12,%rdi
  40235f:	e8 9c fd ff ff       	callq  402100 <rio_readlineb>
  402364:	48 85 c0             	test   %rax,%rax
  402367:	0f 8e ab 02 00 00    	jle    402618 <submitr+0x499>
  40236d:	48 8d 8c 24 2c 20 00 	lea    0x202c(%rsp),%rcx
  402374:	00 
  402375:	48 8d 94 24 30 20 00 	lea    0x2030(%rsp),%rdx
  40237c:	00 
  40237d:	48 8d bc 24 30 60 00 	lea    0x6030(%rsp),%rdi
  402384:	00 
  402385:	4c 8d 44 24 20       	lea    0x20(%rsp),%r8
  40238a:	48 8d 35 0e 10 00 00 	lea    0x100e(%rip),%rsi        # 40339f <trans_char+0xaf>
  402391:	b8 00 00 00 00       	mov    $0x0,%eax
  402396:	e8 95 e9 ff ff       	callq  400d30 <__isoc99_sscanf@plt>
  40239b:	e9 9f 03 00 00       	jmpq   40273f <submitr+0x5c0>
  4023a0:	48 b8 45 72 72 6f 72 	movabs $0x43203a726f727245,%rax
  4023a7:	3a 20 43 
  4023aa:	48 89 03             	mov    %rax,(%rbx)
  4023ad:	48 b8 6c 69 65 6e 74 	movabs $0x6e7520746e65696c,%rax
  4023b4:	20 75 6e 
  4023b7:	48 89 43 08          	mov    %rax,0x8(%rbx)
  4023bb:	48 b8 61 62 6c 65 20 	movabs $0x206f7420656c6261,%rax
  4023c2:	74 6f 20 
  4023c5:	48 89 43 10          	mov    %rax,0x10(%rbx)
  4023c9:	48 b8 63 72 65 61 74 	movabs $0x7320657461657263,%rax
  4023d0:	65 20 73 
  4023d3:	48 89 43 18          	mov    %rax,0x18(%rbx)
  4023d7:	c7 43 20 6f 63 6b 65 	movl   $0x656b636f,0x20(%rbx)
  4023de:	66 c7 43 24 74 00    	movw   $0x74,0x24(%rbx)
  4023e4:	b8 ff ff ff ff       	mov    $0xffffffff,%eax
  4023e9:	e9 18 03 00 00       	jmpq   402706 <submitr+0x587>
  4023ee:	48 b8 45 72 72 6f 72 	movabs $0x44203a726f727245,%rax
  4023f5:	3a 20 44 
  4023f8:	48 89 03             	mov    %rax,(%rbx)
  4023fb:	48 b8 4e 53 20 69 73 	movabs $0x6e7520736920534e,%rax
  402402:	20 75 6e 
  402405:	48 89 43 08          	mov    %rax,0x8(%rbx)
  402409:	48 b8 61 62 6c 65 20 	movabs $0x206f7420656c6261,%rax
  402410:	74 6f 20 
  402413:	48 89 43 10          	mov    %rax,0x10(%rbx)
  402417:	48 b8 72 65 73 6f 6c 	movabs $0x2065766c6f736572,%rax
  40241e:	76 65 20 
  402421:	48 89 43 18          	mov    %rax,0x18(%rbx)
  402425:	48 b8 73 65 72 76 65 	movabs $0x6120726576726573,%rax
  40242c:	72 20 61 
  40242f:	48 89 43 20          	mov    %rax,0x20(%rbx)
  402433:	c7 43 28 64 64 72 65 	movl   $0x65726464,0x28(%rbx)
  40243a:	66 c7 43 2c 73 73    	movw   $0x7373,0x2c(%rbx)
  402440:	c6 43 2e 00          	movb   $0x0,0x2e(%rbx)
  402444:	89 ef                	mov    %ebp,%edi
  402446:	e8 45 e8 ff ff       	callq  400c90 <close@plt>
  40244b:	b8 ff ff ff ff       	mov    $0xffffffff,%eax
  402450:	e9 b1 02 00 00       	jmpq   402706 <submitr+0x587>
  402455:	48 b8 45 72 72 6f 72 	movabs $0x55203a726f727245,%rax
  40245c:	3a 20 55 
  40245f:	48 89 03             	mov    %rax,(%rbx)
  402462:	48 b8 6e 61 62 6c 65 	movabs $0x6f7420656c62616e,%rax
  402469:	20 74 6f 
  40246c:	48 89 43 08          	mov    %rax,0x8(%rbx)
  402470:	48 b8 20 63 6f 6e 6e 	movabs $0x7463656e6e6f6320,%rax
  402477:	65 63 74 
  40247a:	48 89 43 10          	mov    %rax,0x10(%rbx)
  40247e:	48 b8 20 74 6f 20 74 	movabs $0x20656874206f7420,%rax
  402485:	68 65 20 
  402488:	48 89 43 18          	mov    %rax,0x18(%rbx)
  40248c:	c7 43 20 73 65 72 76 	movl   $0x76726573,0x20(%rbx)
  402493:	66 c7 43 24 65 72    	movw   $0x7265,0x24(%rbx)
  402499:	c6 43 26 00          	movb   $0x0,0x26(%rbx)
  40249d:	89 ef                	mov    %ebp,%edi
  40249f:	e8 ec e7 ff ff       	callq  400c90 <close@plt>
  4024a4:	b8 ff ff ff ff       	mov    $0xffffffff,%eax
  4024a9:	e9 58 02 00 00       	jmpq   402706 <submitr+0x587>
  4024ae:	48 b8 45 72 72 6f 72 	movabs $0x52203a726f727245,%rax
  4024b5:	3a 20 52 
  4024b8:	48 89 03             	mov    %rax,(%rbx)
  4024bb:	48 b8 65 73 75 6c 74 	movabs $0x747320746c757365,%rax
  4024c2:	20 73 74 
  4024c5:	48 89 43 08          	mov    %rax,0x8(%rbx)
  4024c9:	48 b8 72 69 6e 67 20 	movabs $0x6f6f7420676e6972,%rax
  4024d0:	74 6f 6f 
  4024d3:	48 89 43 10          	mov    %rax,0x10(%rbx)
  4024d7:	48 b8 20 6c 61 72 67 	movabs $0x202e656772616c20,%rax
  4024de:	65 2e 20 
  4024e1:	48 89 43 18          	mov    %rax,0x18(%rbx)
  4024e5:	48 b8 49 6e 63 72 65 	movabs $0x6573616572636e49,%rax
  4024ec:	61 73 65 
  4024ef:	48 89 43 20          	mov    %rax,0x20(%rbx)
  4024f3:	48 b8 20 53 55 42 4d 	movabs $0x5254494d42555320,%rax
  4024fa:	49 54 52 
  4024fd:	48 89 43 28          	mov    %rax,0x28(%rbx)
  402501:	48 b8 5f 4d 41 58 42 	movabs $0x46554258414d5f,%rax
  402508:	55 46 00 
  40250b:	48 89 43 30          	mov    %rax,0x30(%rbx)
  40250f:	89 ef                	mov    %ebp,%edi
  402511:	e8 7a e7 ff ff       	callq  400c90 <close@plt>
  402516:	b8 ff ff ff ff       	mov    $0xffffffff,%eax
  40251b:	e9 e6 01 00 00       	jmpq   402706 <submitr+0x587>
  402520:	48 b8 45 72 72 6f 72 	movabs $0x52203a726f727245,%rax
  402527:	3a 20 52 
  40252a:	48 89 03             	mov    %rax,(%rbx)
  40252d:	48 b8 65 73 75 6c 74 	movabs $0x747320746c757365,%rax
  402534:	20 73 74 
  402537:	48 89 43 08          	mov    %rax,0x8(%rbx)
  40253b:	48 b8 72 69 6e 67 20 	movabs $0x6e6f6320676e6972,%rax
  402542:	63 6f 6e 
  402545:	48 89 43 10          	mov    %rax,0x10(%rbx)
  402549:	48 b8 74 61 69 6e 73 	movabs $0x6e6120736e696174,%rax
  402550:	20 61 6e 
  402553:	48 89 43 18          	mov    %rax,0x18(%rbx)
  402557:	48 b8 20 69 6c 6c 65 	movabs $0x6c6167656c6c6920,%rax
  40255e:	67 61 6c 
  402561:	48 89 43 20          	mov    %rax,0x20(%rbx)
  402565:	48 b8 20 6f 72 20 75 	movabs $0x72706e7520726f20,%rax
  40256c:	6e 70 72 
  40256f:	48 89 43 28          	mov    %rax,0x28(%rbx)
  402573:	48 b8 69 6e 74 61 62 	movabs $0x20656c6261746e69,%rax
  40257a:	6c 65 20 
  40257d:	48 89 43 30          	mov    %rax,0x30(%rbx)
  402581:	48 b8 63 68 61 72 61 	movabs $0x6574636172616863,%rax
  402588:	63 74 65 
  40258b:	48 89 43 38          	mov    %rax,0x38(%rbx)
  40258f:	66 c7 43 40 72 2e    	movw   $0x2e72,0x40(%rbx)
  402595:	c6 43 42 00          	movb   $0x0,0x42(%rbx)
  402599:	89 ef                	mov    %ebp,%edi
  40259b:	e8 f0 e6 ff ff       	callq  400c90 <close@plt>
  4025a0:	b8 ff ff ff ff       	mov    $0xffffffff,%eax
  4025a5:	e9 5c 01 00 00       	jmpq   402706 <submitr+0x587>
  4025aa:	48 b8 45 72 72 6f 72 	movabs $0x43203a726f727245,%rax
  4025b1:	3a 20 43 
  4025b4:	48 89 03             	mov    %rax,(%rbx)
  4025b7:	48 b8 6c 69 65 6e 74 	movabs $0x6e7520746e65696c,%rax
  4025be:	20 75 6e 
  4025c1:	48 89 43 08          	mov    %rax,0x8(%rbx)
  4025c5:	48 b8 61 62 6c 65 20 	movabs $0x206f7420656c6261,%rax
  4025cc:	74 6f 20 
  4025cf:	48 89 43 10          	mov    %rax,0x10(%rbx)
  4025d3:	48 b8 77 72 69 74 65 	movabs $0x6f74206574697277,%rax
  4025da:	20 74 6f 
  4025dd:	48 89 43 18          	mov    %rax,0x18(%rbx)
  4025e1:	48 b8 20 74 68 65 20 	movabs $0x7365722065687420,%rax
  4025e8:	72 65 73 
  4025eb:	48 89 43 20          	mov    %rax,0x20(%rbx)
  4025ef:	48 b8 75 6c 74 20 73 	movabs $0x7672657320746c75,%rax
  4025f6:	65 72 76 
  4025f9:	48 89 43 28          	mov    %rax,0x28(%rbx)
  4025fd:	66 c7 43 30 65 72    	movw   $0x7265,0x30(%rbx)
  402603:	c6 43 32 00          	movb   $0x0,0x32(%rbx)
  402607:	89 ef                	mov    %ebp,%edi
  402609:	e8 82 e6 ff ff       	callq  400c90 <close@plt>
  40260e:	b8 ff ff ff ff       	mov    $0xffffffff,%eax
  402613:	e9 ee 00 00 00       	jmpq   402706 <submitr+0x587>
  402618:	48 b8 45 72 72 6f 72 	movabs $0x43203a726f727245,%rax
  40261f:	3a 20 43 
  402622:	48 89 03             	mov    %rax,(%rbx)
  402625:	48 b8 6c 69 65 6e 74 	movabs $0x6e7520746e65696c,%rax
  40262c:	20 75 6e 
  40262f:	48 89 43 08          	mov    %rax,0x8(%rbx)
  402633:	48 b8 61 62 6c 65 20 	movabs $0x206f7420656c6261,%rax
  40263a:	74 6f 20 
  40263d:	48 89 43 10          	mov    %rax,0x10(%rbx)
  402641:	48 b8 72 65 61 64 20 	movabs $0x7269662064616572,%rax
  402648:	66 69 72 
  40264b:	48 89 43 18          	mov    %rax,0x18(%rbx)
  40264f:	48 b8 73 74 20 68 65 	movabs $0x6564616568207473,%rax
  402656:	61 64 65 
  402659:	48 89 43 20          	mov    %rax,0x20(%rbx)
  40265d:	48 b8 72 20 66 72 6f 	movabs $0x72206d6f72662072,%rax
  402664:	6d 20 72 
  402667:	48 89 43 28          	mov    %rax,0x28(%rbx)
  40266b:	48 b8 65 73 75 6c 74 	movabs $0x657320746c757365,%rax
  402672:	20 73 65 
  402675:	48 89 43 30          	mov    %rax,0x30(%rbx)
  402679:	c7 43 38 72 76 65 72 	movl   $0x72657672,0x38(%rbx)
  402680:	c6 43 3c 00          	movb   $0x0,0x3c(%rbx)
  402684:	89 ef                	mov    %ebp,%edi
  402686:	e8 05 e6 ff ff       	callq  400c90 <close@plt>
  40268b:	b8 ff ff ff ff       	mov    $0xffffffff,%eax
  402690:	eb 74                	jmp    402706 <submitr+0x587>
  402692:	48 b8 45 72 72 6f 72 	movabs $0x43203a726f727245,%rax
  402699:	3a 20 43 
  40269c:	48 89 03             	mov    %rax,(%rbx)
  40269f:	48 b8 6c 69 65 6e 74 	movabs $0x6e7520746e65696c,%rax
  4026a6:	20 75 6e 
  4026a9:	48 89 43 08          	mov    %rax,0x8(%rbx)
  4026ad:	48 b8 61 62 6c 65 20 	movabs $0x206f7420656c6261,%rax
  4026b4:	74 6f 20 
  4026b7:	48 89 43 10          	mov    %rax,0x10(%rbx)
  4026bb:	48 b8 72 65 61 64 20 	movabs $0x6165682064616572,%rax
  4026c2:	68 65 61 
  4026c5:	48 89 43 18          	mov    %rax,0x18(%rbx)
  4026c9:	48 b8 64 65 72 73 20 	movabs $0x6f72662073726564,%rax
  4026d0:	66 72 6f 
  4026d3:	48 89 43 20          	mov    %rax,0x20(%rbx)
  4026d7:	48 b8 6d 20 74 68 65 	movabs $0x657220656874206d,%rax
  4026de:	20 72 65 
  4026e1:	48 89 43 28          	mov    %rax,0x28(%rbx)
  4026e5:	48 b8 73 75 6c 74 20 	movabs $0x72657320746c7573,%rax
  4026ec:	73 65 72 
  4026ef:	48 89 43 30          	mov    %rax,0x30(%rbx)
  4026f3:	c7 43 38 76 65 72 00 	movl   $0x726576,0x38(%rbx)
  4026fa:	89 ef                	mov    %ebp,%edi
  4026fc:	e8 8f e5 ff ff       	callq  400c90 <close@plt>
  402701:	b8 ff ff ff ff       	mov    $0xffffffff,%eax
  402706:	48 81 c4 58 a0 00 00 	add    $0xa058,%rsp
  40270d:	5b                   	pop    %rbx
  40270e:	5d                   	pop    %rbp
  40270f:	41 5c                	pop    %r12
  402711:	41 5d                	pop    %r13
  402713:	41 5e                	pop    %r14
  402715:	41 5f                	pop    %r15
  402717:	c3                   	retq   
  402718:	85 c0                	test   %eax,%eax
  40271a:	74 51                	je     40276d <submitr+0x5ee>
  40271c:	48 8d b4 24 30 60 00 	lea    0x6030(%rsp),%rsi
  402723:	00 
  402724:	48 8d bc 24 30 80 00 	lea    0x8030(%rsp),%rdi
  40272b:	00 
  40272c:	ba 00 20 00 00       	mov    $0x2000,%edx
  402731:	e8 ca f9 ff ff       	callq  402100 <rio_readlineb>
  402736:	48 85 c0             	test   %rax,%rax
  402739:	0f 8e 53 ff ff ff    	jle    402692 <submitr+0x513>
  40273f:	0f b6 94 24 30 60 00 	movzbl 0x6030(%rsp),%edx
  402746:	00 
  402747:	b8 0d 00 00 00       	mov    $0xd,%eax
  40274c:	29 d0                	sub    %edx,%eax
  40274e:	75 c8                	jne    402718 <submitr+0x599>
  402750:	0f b6 94 24 31 60 00 	movzbl 0x6031(%rsp),%edx
  402757:	00 
  402758:	b8 0a 00 00 00       	mov    $0xa,%eax
  40275d:	29 d0                	sub    %edx,%eax
  40275f:	75 b7                	jne    402718 <submitr+0x599>
  402761:	0f b6 84 24 32 60 00 	movzbl 0x6032(%rsp),%eax
  402768:	00 
  402769:	f7 d8                	neg    %eax
  40276b:	eb ab                	jmp    402718 <submitr+0x599>
  40276d:	48 8d b4 24 30 60 00 	lea    0x6030(%rsp),%rsi
  402774:	00 
  402775:	48 8d bc 24 30 80 00 	lea    0x8030(%rsp),%rdi
  40277c:	00 
  40277d:	ba 00 20 00 00       	mov    $0x2000,%edx
  402782:	e8 79 f9 ff ff       	callq  402100 <rio_readlineb>
  402787:	48 85 c0             	test   %rax,%rax
  40278a:	7e 67                	jle    4027f3 <submitr+0x674>
  40278c:	8b 94 24 2c 20 00 00 	mov    0x202c(%rsp),%edx
  402793:	81 fa c8 00 00 00    	cmp    $0xc8,%edx
  402799:	0f 85 d7 00 00 00    	jne    402876 <submitr+0x6f7>
  40279f:	48 8d b4 24 30 60 00 	lea    0x6030(%rsp),%rsi
  4027a6:	00 
  4027a7:	48 89 df             	mov    %rbx,%rdi
  4027aa:	e8 71 e4 ff ff       	callq  400c20 <strcpy@plt>
  4027af:	89 ef                	mov    %ebp,%edi
  4027b1:	e8 da e4 ff ff       	callq  400c90 <close@plt>
  4027b6:	0f b6 03             	movzbl (%rbx),%eax
  4027b9:	ba 4f 00 00 00       	mov    $0x4f,%edx
  4027be:	29 c2                	sub    %eax,%edx
  4027c0:	0f 85 da 00 00 00    	jne    4028a0 <submitr+0x721>
  4027c6:	0f b6 4b 01          	movzbl 0x1(%rbx),%ecx
  4027ca:	b8 4b 00 00 00       	mov    $0x4b,%eax
  4027cf:	29 c8                	sub    %ecx,%eax
  4027d1:	0f 85 cb 00 00 00    	jne    4028a2 <submitr+0x723>
  4027d7:	0f b6 4b 02          	movzbl 0x2(%rbx),%ecx
  4027db:	b8 0a 00 00 00       	mov    $0xa,%eax
  4027e0:	29 c8                	sub    %ecx,%eax
  4027e2:	0f 85 ba 00 00 00    	jne    4028a2 <submitr+0x723>
  4027e8:	0f b6 43 03          	movzbl 0x3(%rbx),%eax
  4027ec:	f7 d8                	neg    %eax
  4027ee:	e9 af 00 00 00       	jmpq   4028a2 <submitr+0x723>
  4027f3:	48 b8 45 72 72 6f 72 	movabs $0x43203a726f727245,%rax
  4027fa:	3a 20 43 
  4027fd:	48 89 03             	mov    %rax,(%rbx)
  402800:	48 b8 6c 69 65 6e 74 	movabs $0x6e7520746e65696c,%rax
  402807:	20 75 6e 
  40280a:	48 89 43 08          	mov    %rax,0x8(%rbx)
  40280e:	48 b8 61 62 6c 65 20 	movabs $0x206f7420656c6261,%rax
  402815:	74 6f 20 
  402818:	48 89 43 10          	mov    %rax,0x10(%rbx)
  40281c:	48 b8 72 65 61 64 20 	movabs $0x6174732064616572,%rax
  402823:	73 74 61 
  402826:	48 89 43 18          	mov    %rax,0x18(%rbx)
  40282a:	48 b8 74 75 73 20 6d 	movabs $0x7373656d20737574,%rax
  402831:	65 73 73 
  402834:	48 89 43 20          	mov    %rax,0x20(%rbx)
  402838:	48 b8 61 67 65 20 66 	movabs $0x6d6f726620656761,%rax
  40283f:	72 6f 6d 
  402842:	48 89 43 28          	mov    %rax,0x28(%rbx)
  402846:	48 b8 20 72 65 73 75 	movabs $0x20746c7573657220,%rax
  40284d:	6c 74 20 
  402850:	48 89 43 30          	mov    %rax,0x30(%rbx)
  402854:	c7 43 38 73 65 72 76 	movl   $0x76726573,0x38(%rbx)
  40285b:	66 c7 43 3c 65 72    	movw   $0x7265,0x3c(%rbx)
  402861:	c6 43 3e 00          	movb   $0x0,0x3e(%rbx)
  402865:	89 ef                	mov    %ebp,%edi
  402867:	e8 24 e4 ff ff       	callq  400c90 <close@plt>
  40286c:	b8 ff ff ff ff       	mov    $0xffffffff,%eax
  402871:	e9 90 fe ff ff       	jmpq   402706 <submitr+0x587>
  402876:	48 8d 4c 24 20       	lea    0x20(%rsp),%rcx
  40287b:	48 8d 35 e6 0a 00 00 	lea    0xae6(%rip),%rsi        # 403368 <trans_char+0x78>
  402882:	48 89 df             	mov    %rbx,%rdi
  402885:	b8 00 00 00 00       	mov    $0x0,%eax
  40288a:	e8 11 e5 ff ff       	callq  400da0 <sprintf@plt>
  40288f:	89 ef                	mov    %ebp,%edi
  402891:	e8 fa e3 ff ff       	callq  400c90 <close@plt>
  402896:	b8 ff ff ff ff       	mov    $0xffffffff,%eax
  40289b:	e9 66 fe ff ff       	jmpq   402706 <submitr+0x587>
  4028a0:	89 d0                	mov    %edx,%eax
  4028a2:	f7 d8                	neg    %eax
  4028a4:	0f 84 5c fe ff ff    	je     402706 <submitr+0x587>
  4028aa:	b9 05 00 00 00       	mov    $0x5,%ecx
  4028af:	48 8d 3d fa 0a 00 00 	lea    0xafa(%rip),%rdi        # 4033b0 <trans_char+0xc0>
  4028b6:	48 89 de             	mov    %rbx,%rsi
  4028b9:	f3 a6                	repz cmpsb %es:(%rdi),%ds:(%rsi)
  4028bb:	0f 97 c0             	seta   %al
  4028be:	0f 92 c1             	setb   %cl
  4028c1:	29 c8                	sub    %ecx,%eax
  4028c3:	0f be c0             	movsbl %al,%eax
  4028c6:	85 c0                	test   %eax,%eax
  4028c8:	0f 84 38 fe ff ff    	je     402706 <submitr+0x587>
  4028ce:	85 d2                	test   %edx,%edx
  4028d0:	75 13                	jne    4028e5 <submitr+0x766>
  4028d2:	0f b6 43 01          	movzbl 0x1(%rbx),%eax
  4028d6:	ba 4b 00 00 00       	mov    $0x4b,%edx
  4028db:	29 c2                	sub    %eax,%edx
  4028dd:	75 06                	jne    4028e5 <submitr+0x766>
  4028df:	0f b6 53 02          	movzbl 0x2(%rbx),%edx
  4028e3:	f7 da                	neg    %edx
  4028e5:	89 d0                	mov    %edx,%eax
  4028e7:	f7 d8                	neg    %eax
  4028e9:	0f 84 17 fe ff ff    	je     402706 <submitr+0x587>
  4028ef:	b8 ff ff ff ff       	mov    $0xffffffff,%eax
  4028f4:	e9 0d fe ff ff       	jmpq   402706 <submitr+0x587>

00000000004028f9 <init_timeout>:
  4028f9:	85 ff                	test   %edi,%edi
  4028fb:	74 20                	je     40291d <init_timeout+0x24>
  4028fd:	53                   	push   %rbx
  4028fe:	89 fb                	mov    %edi,%ebx
  402900:	85 ff                	test   %edi,%edi
  402902:	78 1b                	js     40291f <init_timeout+0x26>
  402904:	48 8d 35 05 f6 ff ff 	lea    -0x9fb(%rip),%rsi        # 401f10 <sigalrm_handler>
  40290b:	bf 0e 00 00 00       	mov    $0xe,%edi
  402910:	e8 9b e3 ff ff       	callq  400cb0 <signal@plt>
  402915:	89 df                	mov    %ebx,%edi
  402917:	e8 64 e3 ff ff       	callq  400c80 <alarm@plt>
  40291c:	5b                   	pop    %rbx
  40291d:	f3 c3                	repz retq 
  40291f:	bb 00 00 00 00       	mov    $0x0,%ebx
  402924:	eb de                	jmp    402904 <init_timeout+0xb>

0000000000402926 <init_driver>:
  402926:	41 54                	push   %r12
  402928:	55                   	push   %rbp
  402929:	53                   	push   %rbx
  40292a:	48 83 ec 10          	sub    $0x10,%rsp
  40292e:	48 89 fd             	mov    %rdi,%rbp
  402931:	be 01 00 00 00       	mov    $0x1,%esi
  402936:	bf 0d 00 00 00       	mov    $0xd,%edi
  40293b:	e8 70 e3 ff ff       	callq  400cb0 <signal@plt>
  402940:	be 01 00 00 00       	mov    $0x1,%esi
  402945:	bf 1d 00 00 00       	mov    $0x1d,%edi
  40294a:	e8 61 e3 ff ff       	callq  400cb0 <signal@plt>
  40294f:	be 01 00 00 00       	mov    $0x1,%esi
  402954:	bf 1d 00 00 00       	mov    $0x1d,%edi
  402959:	e8 52 e3 ff ff       	callq  400cb0 <signal@plt>
  40295e:	ba 00 00 00 00       	mov    $0x0,%edx
  402963:	be 01 00 00 00       	mov    $0x1,%esi
  402968:	bf 02 00 00 00       	mov    $0x2,%edi
  40296d:	e8 5e e4 ff ff       	callq  400dd0 <socket@plt>
  402972:	85 c0                	test   %eax,%eax
  402974:	0f 88 80 00 00 00    	js     4029fa <init_driver+0xd4>
  40297a:	89 c3                	mov    %eax,%ebx
  40297c:	48 8d 3d 32 0a 00 00 	lea    0xa32(%rip),%rdi        # 4033b5 <trans_char+0xc5>
  402983:	e8 38 e3 ff ff       	callq  400cc0 <gethostbyname@plt>
  402988:	48 85 c0             	test   %rax,%rax
  40298b:	0f 84 b5 00 00 00    	je     402a46 <init_driver+0x120>
  402991:	48 c7 04 24 00 00 00 	movq   $0x0,(%rsp)
  402998:	00 
  402999:	48 c7 44 24 08 00 00 	movq   $0x0,0x8(%rsp)
  4029a0:	00 00 
  4029a2:	66 c7 04 24 02 00    	movw   $0x2,(%rsp)
  4029a8:	48 8b 48 18          	mov    0x18(%rax),%rcx
  4029ac:	48 63 50 14          	movslq 0x14(%rax),%rdx
  4029b0:	48 8d 74 24 04       	lea    0x4(%rsp),%rsi
  4029b5:	48 8b 39             	mov    (%rcx),%rdi
  4029b8:	e8 93 e3 ff ff       	callq  400d50 <bcopy@plt>
  4029bd:	66 c7 44 24 02 3c a4 	movw   $0xa43c,0x2(%rsp)
  4029c4:	ba 10 00 00 00       	mov    $0x10,%edx
  4029c9:	48 89 e6             	mov    %rsp,%rsi
  4029cc:	89 df                	mov    %ebx,%edi
  4029ce:	e8 ed e3 ff ff       	callq  400dc0 <connect@plt>
  4029d3:	85 c0                	test   %eax,%eax
  4029d5:	0f 88 d3 00 00 00    	js     402aae <init_driver+0x188>
  4029db:	89 df                	mov    %ebx,%edi
  4029dd:	e8 ae e2 ff ff       	callq  400c90 <close@plt>
  4029e2:	66 c7 45 00 4f 4b    	movw   $0x4b4f,0x0(%rbp)
  4029e8:	c6 45 02 00          	movb   $0x0,0x2(%rbp)
  4029ec:	b8 00 00 00 00       	mov    $0x0,%eax
  4029f1:	48 83 c4 10          	add    $0x10,%rsp
  4029f5:	5b                   	pop    %rbx
  4029f6:	5d                   	pop    %rbp
  4029f7:	41 5c                	pop    %r12
  4029f9:	c3                   	retq   
  4029fa:	48 b8 45 72 72 6f 72 	movabs $0x43203a726f727245,%rax
  402a01:	3a 20 43 
  402a04:	48 89 45 00          	mov    %rax,0x0(%rbp)
  402a08:	48 b8 6c 69 65 6e 74 	movabs $0x6e7520746e65696c,%rax
  402a0f:	20 75 6e 
  402a12:	48 89 45 08          	mov    %rax,0x8(%rbp)
  402a16:	48 b8 61 62 6c 65 20 	movabs $0x206f7420656c6261,%rax
  402a1d:	74 6f 20 
  402a20:	48 89 45 10          	mov    %rax,0x10(%rbp)
  402a24:	48 b8 63 72 65 61 74 	movabs $0x7320657461657263,%rax
  402a2b:	65 20 73 
  402a2e:	48 89 45 18          	mov    %rax,0x18(%rbp)
  402a32:	c7 45 20 6f 63 6b 65 	movl   $0x656b636f,0x20(%rbp)
  402a39:	66 c7 45 24 74 00    	movw   $0x74,0x24(%rbp)
  402a3f:	b8 ff ff ff ff       	mov    $0xffffffff,%eax
  402a44:	eb ab                	jmp    4029f1 <init_driver+0xcb>
  402a46:	48 b8 45 72 72 6f 72 	movabs $0x44203a726f727245,%rax
  402a4d:	3a 20 44 
  402a50:	48 89 45 00          	mov    %rax,0x0(%rbp)
  402a54:	48 b8 4e 53 20 69 73 	movabs $0x6e7520736920534e,%rax
  402a5b:	20 75 6e 
  402a5e:	48 89 45 08          	mov    %rax,0x8(%rbp)
  402a62:	48 b8 61 62 6c 65 20 	movabs $0x206f7420656c6261,%rax
  402a69:	74 6f 20 
  402a6c:	48 89 45 10          	mov    %rax,0x10(%rbp)
  402a70:	48 b8 72 65 73 6f 6c 	movabs $0x2065766c6f736572,%rax
  402a77:	76 65 20 
  402a7a:	48 89 45 18          	mov    %rax,0x18(%rbp)
  402a7e:	48 b8 73 65 72 76 65 	movabs $0x6120726576726573,%rax
  402a85:	72 20 61 
  402a88:	48 89 45 20          	mov    %rax,0x20(%rbp)
  402a8c:	c7 45 28 64 64 72 65 	movl   $0x65726464,0x28(%rbp)
  402a93:	66 c7 45 2c 73 73    	movw   $0x7373,0x2c(%rbp)
  402a99:	c6 45 2e 00          	movb   $0x0,0x2e(%rbp)
  402a9d:	89 df                	mov    %ebx,%edi
  402a9f:	e8 ec e1 ff ff       	callq  400c90 <close@plt>
  402aa4:	b8 ff ff ff ff       	mov    $0xffffffff,%eax
  402aa9:	e9 43 ff ff ff       	jmpq   4029f1 <init_driver+0xcb>
  402aae:	48 b8 45 72 72 6f 72 	movabs $0x55203a726f727245,%rax
  402ab5:	3a 20 55 
  402ab8:	48 89 45 00          	mov    %rax,0x0(%rbp)
  402abc:	48 b8 6e 61 62 6c 65 	movabs $0x6f7420656c62616e,%rax
  402ac3:	20 74 6f 
  402ac6:	48 89 45 08          	mov    %rax,0x8(%rbp)
  402aca:	48 b8 20 63 6f 6e 6e 	movabs $0x7463656e6e6f6320,%rax
  402ad1:	65 63 74 
  402ad4:	48 89 45 10          	mov    %rax,0x10(%rbp)
  402ad8:	48 b8 20 74 6f 20 73 	movabs $0x76726573206f7420,%rax
  402adf:	65 72 76 
  402ae2:	48 89 45 18          	mov    %rax,0x18(%rbp)
  402ae6:	66 c7 45 20 65 72    	movw   $0x7265,0x20(%rbp)
  402aec:	c6 45 22 00          	movb   $0x0,0x22(%rbp)
  402af0:	89 df                	mov    %ebx,%edi
  402af2:	e8 99 e1 ff ff       	callq  400c90 <close@plt>
  402af7:	b8 ff ff ff ff       	mov    $0xffffffff,%eax
  402afc:	e9 f0 fe ff ff       	jmpq   4029f1 <init_driver+0xcb>

0000000000402b01 <driver_post>:
  402b01:	53                   	push   %rbx
  402b02:	4c 89 cb             	mov    %r9,%rbx
  402b05:	45 85 c0             	test   %r8d,%r8d
  402b08:	75 18                	jne    402b22 <driver_post+0x21>
  402b0a:	48 85 ff             	test   %rdi,%rdi
  402b0d:	74 05                	je     402b14 <driver_post+0x13>
  402b0f:	80 3f 00             	cmpb   $0x0,(%rdi)
  402b12:	75 32                	jne    402b46 <driver_post+0x45>
  402b14:	66 c7 03 4f 4b       	movw   $0x4b4f,(%rbx)
  402b19:	c6 43 02 00          	movb   $0x0,0x2(%rbx)
  402b1d:	44 89 c0             	mov    %r8d,%eax
  402b20:	5b                   	pop    %rbx
  402b21:	c3                   	retq   
  402b22:	48 89 ce             	mov    %rcx,%rsi
  402b25:	48 8d 3d 97 08 00 00 	lea    0x897(%rip),%rdi        # 4033c3 <trans_char+0xd3>
  402b2c:	b8 00 00 00 00       	mov    $0x0,%eax
  402b31:	e8 2a e1 ff ff       	callq  400c60 <printf@plt>
  402b36:	66 c7 03 4f 4b       	movw   $0x4b4f,(%rbx)
  402b3b:	c6 43 02 00          	movb   $0x0,0x2(%rbx)
  402b3f:	b8 00 00 00 00       	mov    $0x0,%eax
  402b44:	eb da                	jmp    402b20 <driver_post+0x1f>
  402b46:	48 83 ec 08          	sub    $0x8,%rsp
  402b4a:	41 51                	push   %r9
  402b4c:	49 89 c9             	mov    %rcx,%r9
  402b4f:	49 89 d0             	mov    %rdx,%r8
  402b52:	48 89 f9             	mov    %rdi,%rcx
  402b55:	48 89 f2             	mov    %rsi,%rdx
  402b58:	be a4 3c 00 00       	mov    $0x3ca4,%esi
  402b5d:	48 8d 3d 51 08 00 00 	lea    0x851(%rip),%rdi        # 4033b5 <trans_char+0xc5>
  402b64:	e8 16 f6 ff ff       	callq  40217f <submitr>
  402b69:	48 83 c4 10          	add    $0x10,%rsp
  402b6d:	eb b1                	jmp    402b20 <driver_post+0x1f>

0000000000402b6f <check>:
  402b6f:	89 f8                	mov    %edi,%eax
  402b71:	c1 e8 1c             	shr    $0x1c,%eax
  402b74:	85 c0                	test   %eax,%eax
  402b76:	74 1d                	je     402b95 <check+0x26>
  402b78:	b9 00 00 00 00       	mov    $0x0,%ecx
  402b7d:	83 f9 1f             	cmp    $0x1f,%ecx
  402b80:	7f 0d                	jg     402b8f <check+0x20>
  402b82:	89 f8                	mov    %edi,%eax
  402b84:	d3 e8                	shr    %cl,%eax
  402b86:	3c 0a                	cmp    $0xa,%al
  402b88:	74 11                	je     402b9b <check+0x2c>
  402b8a:	83 c1 08             	add    $0x8,%ecx
  402b8d:	eb ee                	jmp    402b7d <check+0xe>
  402b8f:	b8 01 00 00 00       	mov    $0x1,%eax
  402b94:	c3                   	retq   
  402b95:	b8 00 00 00 00       	mov    $0x0,%eax
  402b9a:	c3                   	retq   
  402b9b:	b8 00 00 00 00       	mov    $0x0,%eax
  402ba0:	c3                   	retq   

0000000000402ba1 <gencookie>:
  402ba1:	53                   	push   %rbx
  402ba2:	83 c7 01             	add    $0x1,%edi
  402ba5:	e8 56 e0 ff ff       	callq  400c00 <srandom@plt>
  402baa:	e8 61 e1 ff ff       	callq  400d10 <random@plt>
  402baf:	89 c3                	mov    %eax,%ebx
  402bb1:	89 c7                	mov    %eax,%edi
  402bb3:	e8 b7 ff ff ff       	callq  402b6f <check>
  402bb8:	85 c0                	test   %eax,%eax
  402bba:	74 ee                	je     402baa <gencookie+0x9>
  402bbc:	89 d8                	mov    %ebx,%eax
  402bbe:	5b                   	pop    %rbx
  402bbf:	c3                   	retq   

0000000000402bc0 <__libc_csu_init>:
  402bc0:	41 57                	push   %r15
  402bc2:	41 56                	push   %r14
  402bc4:	41 89 ff             	mov    %edi,%r15d
  402bc7:	41 55                	push   %r13
  402bc9:	41 54                	push   %r12
  402bcb:	4c 8d 25 36 12 20 00 	lea    0x201236(%rip),%r12        # 603e08 <__frame_dummy_init_array_entry>
  402bd2:	55                   	push   %rbp
  402bd3:	48 8d 2d 36 12 20 00 	lea    0x201236(%rip),%rbp        # 603e10 <__init_array_end>
  402bda:	53                   	push   %rbx
  402bdb:	49 89 f6             	mov    %rsi,%r14
  402bde:	49 89 d5             	mov    %rdx,%r13
  402be1:	4c 29 e5             	sub    %r12,%rbp
  402be4:	48 83 ec 08          	sub    $0x8,%rsp
  402be8:	48 c1 fd 03          	sar    $0x3,%rbp
  402bec:	e8 bf df ff ff       	callq  400bb0 <_init>
  402bf1:	48 85 ed             	test   %rbp,%rbp
  402bf4:	74 20                	je     402c16 <__libc_csu_init+0x56>
  402bf6:	31 db                	xor    %ebx,%ebx
  402bf8:	0f 1f 84 00 00 00 00 	nopl   0x0(%rax,%rax,1)
  402bff:	00 
  402c00:	4c 89 ea             	mov    %r13,%rdx
  402c03:	4c 89 f6             	mov    %r14,%rsi
  402c06:	44 89 ff             	mov    %r15d,%edi
  402c09:	41 ff 14 dc          	callq  *(%r12,%rbx,8)
  402c0d:	48 83 c3 01          	add    $0x1,%rbx
  402c11:	48 39 dd             	cmp    %rbx,%rbp
  402c14:	75 ea                	jne    402c00 <__libc_csu_init+0x40>
  402c16:	48 83 c4 08          	add    $0x8,%rsp
  402c1a:	5b                   	pop    %rbx
  402c1b:	5d                   	pop    %rbp
  402c1c:	41 5c                	pop    %r12
  402c1e:	41 5d                	pop    %r13
  402c20:	41 5e                	pop    %r14
  402c22:	41 5f                	pop    %r15
  402c24:	c3                   	retq   
  402c25:	90                   	nop
  402c26:	66 2e 0f 1f 84 00 00 	nopw   %cs:0x0(%rax,%rax,1)
  402c2d:	00 00 00 

0000000000402c30 <__libc_csu_fini>:
  402c30:	f3 c3                	repz retq 

Disassembly of section .fini:

0000000000402c34 <_fini>:
  402c34:	48 83 ec 08          	sub    $0x8,%rsp
  402c38:	48 83 c4 08          	add    $0x8,%rsp
  402c3c:	c3                   	retq   
