
rtarget:     file format elf64-x86-64


Disassembly of section .init:

0000000000400bb0 <_init>:
  400bb0:	48 83 ec 08          	sub    $0x8,%rsp
  400bb4:	48 8b 05 3d 44 20 00 	mov    0x20443d(%rip),%rax        # 604ff8 <__gmon_start__>
  400bbb:	48 85 c0             	test   %rax,%rax
  400bbe:	74 02                	je     400bc2 <_init+0x12>
  400bc0:	ff d0                	callq  *%rax
  400bc2:	48 83 c4 08          	add    $0x8,%rsp
  400bc6:	c3                   	retq   

Disassembly of section .plt:

0000000000400bd0 <.plt>:
  400bd0:	ff 35 32 44 20 00    	pushq  0x204432(%rip)        # 605008 <_GLOBAL_OFFSET_TABLE_+0x8>
  400bd6:	ff 25 34 44 20 00    	jmpq   *0x204434(%rip)        # 605010 <_GLOBAL_OFFSET_TABLE_+0x10>
  400bdc:	0f 1f 40 00          	nopl   0x0(%rax)

0000000000400be0 <strcasecmp@plt>:
  400be0:	ff 25 32 44 20 00    	jmpq   *0x204432(%rip)        # 605018 <strcasecmp@GLIBC_2.2.5>
  400be6:	68 00 00 00 00       	pushq  $0x0
  400beb:	e9 e0 ff ff ff       	jmpq   400bd0 <.plt>

0000000000400bf0 <__errno_location@plt>:
  400bf0:	ff 25 2a 44 20 00    	jmpq   *0x20442a(%rip)        # 605020 <__errno_location@GLIBC_2.2.5>
  400bf6:	68 01 00 00 00       	pushq  $0x1
  400bfb:	e9 d0 ff ff ff       	jmpq   400bd0 <.plt>

0000000000400c00 <srandom@plt>:
  400c00:	ff 25 22 44 20 00    	jmpq   *0x204422(%rip)        # 605028 <srandom@GLIBC_2.2.5>
  400c06:	68 02 00 00 00       	pushq  $0x2
  400c0b:	e9 c0 ff ff ff       	jmpq   400bd0 <.plt>

0000000000400c10 <strncmp@plt>:
  400c10:	ff 25 1a 44 20 00    	jmpq   *0x20441a(%rip)        # 605030 <strncmp@GLIBC_2.2.5>
  400c16:	68 03 00 00 00       	pushq  $0x3
  400c1b:	e9 b0 ff ff ff       	jmpq   400bd0 <.plt>

0000000000400c20 <strcpy@plt>:
  400c20:	ff 25 12 44 20 00    	jmpq   *0x204412(%rip)        # 605038 <strcpy@GLIBC_2.2.5>
  400c26:	68 04 00 00 00       	pushq  $0x4
  400c2b:	e9 a0 ff ff ff       	jmpq   400bd0 <.plt>

0000000000400c30 <puts@plt>:
  400c30:	ff 25 0a 44 20 00    	jmpq   *0x20440a(%rip)        # 605040 <puts@GLIBC_2.2.5>
  400c36:	68 05 00 00 00       	pushq  $0x5
  400c3b:	e9 90 ff ff ff       	jmpq   400bd0 <.plt>

0000000000400c40 <write@plt>:
  400c40:	ff 25 02 44 20 00    	jmpq   *0x204402(%rip)        # 605048 <write@GLIBC_2.2.5>
  400c46:	68 06 00 00 00       	pushq  $0x6
  400c4b:	e9 80 ff ff ff       	jmpq   400bd0 <.plt>

0000000000400c50 <mmap@plt>:
  400c50:	ff 25 fa 43 20 00    	jmpq   *0x2043fa(%rip)        # 605050 <mmap@GLIBC_2.2.5>
  400c56:	68 07 00 00 00       	pushq  $0x7
  400c5b:	e9 70 ff ff ff       	jmpq   400bd0 <.plt>

0000000000400c60 <printf@plt>:
  400c60:	ff 25 f2 43 20 00    	jmpq   *0x2043f2(%rip)        # 605058 <printf@GLIBC_2.2.5>
  400c66:	68 08 00 00 00       	pushq  $0x8
  400c6b:	e9 60 ff ff ff       	jmpq   400bd0 <.plt>

0000000000400c70 <memset@plt>:
  400c70:	ff 25 ea 43 20 00    	jmpq   *0x2043ea(%rip)        # 605060 <memset@GLIBC_2.2.5>
  400c76:	68 09 00 00 00       	pushq  $0x9
  400c7b:	e9 50 ff ff ff       	jmpq   400bd0 <.plt>

0000000000400c80 <alarm@plt>:
  400c80:	ff 25 e2 43 20 00    	jmpq   *0x2043e2(%rip)        # 605068 <alarm@GLIBC_2.2.5>
  400c86:	68 0a 00 00 00       	pushq  $0xa
  400c8b:	e9 40 ff ff ff       	jmpq   400bd0 <.plt>

0000000000400c90 <close@plt>:
  400c90:	ff 25 da 43 20 00    	jmpq   *0x2043da(%rip)        # 605070 <close@GLIBC_2.2.5>
  400c96:	68 0b 00 00 00       	pushq  $0xb
  400c9b:	e9 30 ff ff ff       	jmpq   400bd0 <.plt>

0000000000400ca0 <read@plt>:
  400ca0:	ff 25 d2 43 20 00    	jmpq   *0x2043d2(%rip)        # 605078 <read@GLIBC_2.2.5>
  400ca6:	68 0c 00 00 00       	pushq  $0xc
  400cab:	e9 20 ff ff ff       	jmpq   400bd0 <.plt>

0000000000400cb0 <signal@plt>:
  400cb0:	ff 25 ca 43 20 00    	jmpq   *0x2043ca(%rip)        # 605080 <signal@GLIBC_2.2.5>
  400cb6:	68 0d 00 00 00       	pushq  $0xd
  400cbb:	e9 10 ff ff ff       	jmpq   400bd0 <.plt>

0000000000400cc0 <gethostbyname@plt>:
  400cc0:	ff 25 c2 43 20 00    	jmpq   *0x2043c2(%rip)        # 605088 <gethostbyname@GLIBC_2.2.5>
  400cc6:	68 0e 00 00 00       	pushq  $0xe
  400ccb:	e9 00 ff ff ff       	jmpq   400bd0 <.plt>

0000000000400cd0 <fprintf@plt>:
  400cd0:	ff 25 ba 43 20 00    	jmpq   *0x2043ba(%rip)        # 605090 <fprintf@GLIBC_2.2.5>
  400cd6:	68 0f 00 00 00       	pushq  $0xf
  400cdb:	e9 f0 fe ff ff       	jmpq   400bd0 <.plt>

0000000000400ce0 <strtol@plt>:
  400ce0:	ff 25 b2 43 20 00    	jmpq   *0x2043b2(%rip)        # 605098 <strtol@GLIBC_2.2.5>
  400ce6:	68 10 00 00 00       	pushq  $0x10
  400ceb:	e9 e0 fe ff ff       	jmpq   400bd0 <.plt>

0000000000400cf0 <memcpy@plt>:
  400cf0:	ff 25 aa 43 20 00    	jmpq   *0x2043aa(%rip)        # 6050a0 <memcpy@GLIBC_2.14>
  400cf6:	68 11 00 00 00       	pushq  $0x11
  400cfb:	e9 d0 fe ff ff       	jmpq   400bd0 <.plt>

0000000000400d00 <time@plt>:
  400d00:	ff 25 a2 43 20 00    	jmpq   *0x2043a2(%rip)        # 6050a8 <time@GLIBC_2.2.5>
  400d06:	68 12 00 00 00       	pushq  $0x12
  400d0b:	e9 c0 fe ff ff       	jmpq   400bd0 <.plt>

0000000000400d10 <random@plt>:
  400d10:	ff 25 9a 43 20 00    	jmpq   *0x20439a(%rip)        # 6050b0 <random@GLIBC_2.2.5>
  400d16:	68 13 00 00 00       	pushq  $0x13
  400d1b:	e9 b0 fe ff ff       	jmpq   400bd0 <.plt>

0000000000400d20 <_IO_getc@plt>:
  400d20:	ff 25 92 43 20 00    	jmpq   *0x204392(%rip)        # 6050b8 <_IO_getc@GLIBC_2.2.5>
  400d26:	68 14 00 00 00       	pushq  $0x14
  400d2b:	e9 a0 fe ff ff       	jmpq   400bd0 <.plt>

0000000000400d30 <__isoc99_sscanf@plt>:
  400d30:	ff 25 8a 43 20 00    	jmpq   *0x20438a(%rip)        # 6050c0 <__isoc99_sscanf@GLIBC_2.7>
  400d36:	68 15 00 00 00       	pushq  $0x15
  400d3b:	e9 90 fe ff ff       	jmpq   400bd0 <.plt>

0000000000400d40 <munmap@plt>:
  400d40:	ff 25 82 43 20 00    	jmpq   *0x204382(%rip)        # 6050c8 <munmap@GLIBC_2.2.5>
  400d46:	68 16 00 00 00       	pushq  $0x16
  400d4b:	e9 80 fe ff ff       	jmpq   400bd0 <.plt>

0000000000400d50 <bcopy@plt>:
  400d50:	ff 25 7a 43 20 00    	jmpq   *0x20437a(%rip)        # 6050d0 <bcopy@GLIBC_2.2.5>
  400d56:	68 17 00 00 00       	pushq  $0x17
  400d5b:	e9 70 fe ff ff       	jmpq   400bd0 <.plt>

0000000000400d60 <fopen@plt>:
  400d60:	ff 25 72 43 20 00    	jmpq   *0x204372(%rip)        # 6050d8 <fopen@GLIBC_2.2.5>
  400d66:	68 18 00 00 00       	pushq  $0x18
  400d6b:	e9 60 fe ff ff       	jmpq   400bd0 <.plt>

0000000000400d70 <getopt@plt>:
  400d70:	ff 25 6a 43 20 00    	jmpq   *0x20436a(%rip)        # 6050e0 <getopt@GLIBC_2.2.5>
  400d76:	68 19 00 00 00       	pushq  $0x19
  400d7b:	e9 50 fe ff ff       	jmpq   400bd0 <.plt>

0000000000400d80 <strtoul@plt>:
  400d80:	ff 25 62 43 20 00    	jmpq   *0x204362(%rip)        # 6050e8 <strtoul@GLIBC_2.2.5>
  400d86:	68 1a 00 00 00       	pushq  $0x1a
  400d8b:	e9 40 fe ff ff       	jmpq   400bd0 <.plt>

0000000000400d90 <gethostname@plt>:
  400d90:	ff 25 5a 43 20 00    	jmpq   *0x20435a(%rip)        # 6050f0 <gethostname@GLIBC_2.2.5>
  400d96:	68 1b 00 00 00       	pushq  $0x1b
  400d9b:	e9 30 fe ff ff       	jmpq   400bd0 <.plt>

0000000000400da0 <sprintf@plt>:
  400da0:	ff 25 52 43 20 00    	jmpq   *0x204352(%rip)        # 6050f8 <sprintf@GLIBC_2.2.5>
  400da6:	68 1c 00 00 00       	pushq  $0x1c
  400dab:	e9 20 fe ff ff       	jmpq   400bd0 <.plt>

0000000000400db0 <exit@plt>:
  400db0:	ff 25 4a 43 20 00    	jmpq   *0x20434a(%rip)        # 605100 <exit@GLIBC_2.2.5>
  400db6:	68 1d 00 00 00       	pushq  $0x1d
  400dbb:	e9 10 fe ff ff       	jmpq   400bd0 <.plt>

0000000000400dc0 <connect@plt>:
  400dc0:	ff 25 42 43 20 00    	jmpq   *0x204342(%rip)        # 605108 <connect@GLIBC_2.2.5>
  400dc6:	68 1e 00 00 00       	pushq  $0x1e
  400dcb:	e9 00 fe ff ff       	jmpq   400bd0 <.plt>

0000000000400dd0 <socket@plt>:
  400dd0:	ff 25 3a 43 20 00    	jmpq   *0x20433a(%rip)        # 605110 <socket@GLIBC_2.2.5>
  400dd6:	68 1f 00 00 00       	pushq  $0x1f
  400ddb:	e9 f0 fd ff ff       	jmpq   400bd0 <.plt>

Disassembly of section .text:

0000000000400de0 <_start>:
  400de0:	31 ed                	xor    %ebp,%ebp
  400de2:	49 89 d1             	mov    %rdx,%r9
  400de5:	5e                   	pop    %rsi
  400de6:	48 89 e2             	mov    %rsp,%rdx
  400de9:	48 83 e4 f0          	and    $0xfffffffffffffff0,%rsp
  400ded:	50                   	push   %rax
  400dee:	54                   	push   %rsp
  400def:	49 c7 c0 60 2d 40 00 	mov    $0x402d60,%r8
  400df6:	48 c7 c1 f0 2c 40 00 	mov    $0x402cf0,%rcx
  400dfd:	48 c7 c7 8d 10 40 00 	mov    $0x40108d,%rdi
  400e04:	ff 15 e6 41 20 00    	callq  *0x2041e6(%rip)        # 604ff0 <__libc_start_main@GLIBC_2.2.5>
  400e0a:	f4                   	hlt    
  400e0b:	0f 1f 44 00 00       	nopl   0x0(%rax,%rax,1)

0000000000400e10 <deregister_tm_clones>:
  400e10:	b8 97 54 60 00       	mov    $0x605497,%eax
  400e15:	55                   	push   %rbp
  400e16:	48 2d 90 54 60 00    	sub    $0x605490,%rax
  400e1c:	48 83 f8 0e          	cmp    $0xe,%rax
  400e20:	48 89 e5             	mov    %rsp,%rbp
  400e23:	76 1b                	jbe    400e40 <deregister_tm_clones+0x30>
  400e25:	b8 00 00 00 00       	mov    $0x0,%eax
  400e2a:	48 85 c0             	test   %rax,%rax
  400e2d:	74 11                	je     400e40 <deregister_tm_clones+0x30>
  400e2f:	5d                   	pop    %rbp
  400e30:	bf 90 54 60 00       	mov    $0x605490,%edi
  400e35:	ff e0                	jmpq   *%rax
  400e37:	66 0f 1f 84 00 00 00 	nopw   0x0(%rax,%rax,1)
  400e3e:	00 00 
  400e40:	5d                   	pop    %rbp
  400e41:	c3                   	retq   
  400e42:	0f 1f 40 00          	nopl   0x0(%rax)
  400e46:	66 2e 0f 1f 84 00 00 	nopw   %cs:0x0(%rax,%rax,1)
  400e4d:	00 00 00 

0000000000400e50 <register_tm_clones>:
  400e50:	be 90 54 60 00       	mov    $0x605490,%esi
  400e55:	55                   	push   %rbp
  400e56:	48 81 ee 90 54 60 00 	sub    $0x605490,%rsi
  400e5d:	48 c1 fe 03          	sar    $0x3,%rsi
  400e61:	48 89 e5             	mov    %rsp,%rbp
  400e64:	48 89 f0             	mov    %rsi,%rax
  400e67:	48 c1 e8 3f          	shr    $0x3f,%rax
  400e6b:	48 01 c6             	add    %rax,%rsi
  400e6e:	48 d1 fe             	sar    %rsi
  400e71:	74 15                	je     400e88 <register_tm_clones+0x38>
  400e73:	b8 00 00 00 00       	mov    $0x0,%eax
  400e78:	48 85 c0             	test   %rax,%rax
  400e7b:	74 0b                	je     400e88 <register_tm_clones+0x38>
  400e7d:	5d                   	pop    %rbp
  400e7e:	bf 90 54 60 00       	mov    $0x605490,%edi
  400e83:	ff e0                	jmpq   *%rax
  400e85:	0f 1f 00             	nopl   (%rax)
  400e88:	5d                   	pop    %rbp
  400e89:	c3                   	retq   
  400e8a:	66 0f 1f 44 00 00    	nopw   0x0(%rax,%rax,1)

0000000000400e90 <__do_global_dtors_aux>:
  400e90:	80 3d 31 46 20 00 00 	cmpb   $0x0,0x204631(%rip)        # 6054c8 <completed.6972>
  400e97:	75 11                	jne    400eaa <__do_global_dtors_aux+0x1a>
  400e99:	55                   	push   %rbp
  400e9a:	48 89 e5             	mov    %rsp,%rbp
  400e9d:	e8 6e ff ff ff       	callq  400e10 <deregister_tm_clones>
  400ea2:	5d                   	pop    %rbp
  400ea3:	c6 05 1e 46 20 00 01 	movb   $0x1,0x20461e(%rip)        # 6054c8 <completed.6972>
  400eaa:	f3 c3                	repz retq 
  400eac:	0f 1f 40 00          	nopl   0x0(%rax)

0000000000400eb0 <frame_dummy>:
  400eb0:	bf 18 4e 60 00       	mov    $0x604e18,%edi
  400eb5:	48 83 3f 00          	cmpq   $0x0,(%rdi)
  400eb9:	75 05                	jne    400ec0 <frame_dummy+0x10>
  400ebb:	eb 93                	jmp    400e50 <register_tm_clones>
  400ebd:	0f 1f 00             	nopl   (%rax)
  400ec0:	b8 00 00 00 00       	mov    $0x0,%eax
  400ec5:	48 85 c0             	test   %rax,%rax
  400ec8:	74 f1                	je     400ebb <frame_dummy+0xb>
  400eca:	55                   	push   %rbp
  400ecb:	48 89 e5             	mov    %rsp,%rbp
  400ece:	ff d0                	callq  *%rax
  400ed0:	5d                   	pop    %rbp
  400ed1:	e9 7a ff ff ff       	jmpq   400e50 <register_tm_clones>

0000000000400ed6 <usage>:
  400ed6:	48 83 ec 08          	sub    $0x8,%rsp
  400eda:	48 89 fe             	mov    %rdi,%rsi
  400edd:	83 3d 24 46 20 00 00 	cmpl   $0x0,0x204624(%rip)        # 605508 <is_checker>
  400ee4:	74 4b                	je     400f31 <usage+0x5b>
  400ee6:	48 8d 3d 8b 1e 00 00 	lea    0x1e8b(%rip),%rdi        # 402d78 <_IO_stdin_used+0x8>
  400eed:	b8 00 00 00 00       	mov    $0x0,%eax
  400ef2:	e8 69 fd ff ff       	callq  400c60 <printf@plt>
  400ef7:	48 8d 3d b2 1e 00 00 	lea    0x1eb2(%rip),%rdi        # 402db0 <_IO_stdin_used+0x40>
  400efe:	e8 2d fd ff ff       	callq  400c30 <puts@plt>
  400f03:	48 8d 3d de 1f 00 00 	lea    0x1fde(%rip),%rdi        # 402ee8 <_IO_stdin_used+0x178>
  400f0a:	e8 21 fd ff ff       	callq  400c30 <puts@plt>
  400f0f:	48 8d 3d c2 1e 00 00 	lea    0x1ec2(%rip),%rdi        # 402dd8 <_IO_stdin_used+0x68>
  400f16:	e8 15 fd ff ff       	callq  400c30 <puts@plt>
  400f1b:	48 8d 3d e0 1f 00 00 	lea    0x1fe0(%rip),%rdi        # 402f02 <_IO_stdin_used+0x192>
  400f22:	e8 09 fd ff ff       	callq  400c30 <puts@plt>
  400f27:	bf 00 00 00 00       	mov    $0x0,%edi
  400f2c:	e8 7f fe ff ff       	callq  400db0 <exit@plt>
  400f31:	48 8d 3d e6 1f 00 00 	lea    0x1fe6(%rip),%rdi        # 402f1e <_IO_stdin_used+0x1ae>
  400f38:	b8 00 00 00 00       	mov    $0x0,%eax
  400f3d:	e8 1e fd ff ff       	callq  400c60 <printf@plt>
  400f42:	48 8d 3d b7 1e 00 00 	lea    0x1eb7(%rip),%rdi        # 402e00 <_IO_stdin_used+0x90>
  400f49:	e8 e2 fc ff ff       	callq  400c30 <puts@plt>
  400f4e:	48 8d 3d d3 1e 00 00 	lea    0x1ed3(%rip),%rdi        # 402e28 <_IO_stdin_used+0xb8>
  400f55:	e8 d6 fc ff ff       	callq  400c30 <puts@plt>
  400f5a:	48 8d 3d db 1f 00 00 	lea    0x1fdb(%rip),%rdi        # 402f3c <_IO_stdin_used+0x1cc>
  400f61:	e8 ca fc ff ff       	callq  400c30 <puts@plt>
  400f66:	eb bf                	jmp    400f27 <usage+0x51>

0000000000400f68 <initialize_target>:
  400f68:	55                   	push   %rbp
  400f69:	53                   	push   %rbx
  400f6a:	48 81 ec 08 21 00 00 	sub    $0x2108,%rsp
  400f71:	89 f5                	mov    %esi,%ebp
  400f73:	89 3d 7f 45 20 00    	mov    %edi,0x20457f(%rip)        # 6054f8 <check_level>
  400f79:	8b 3d b1 41 20 00    	mov    0x2041b1(%rip),%edi        # 605130 <target_id>
  400f7f:	e8 3f 1d 00 00       	callq  402cc3 <gencookie>
  400f84:	89 05 7a 45 20 00    	mov    %eax,0x20457a(%rip)        # 605504 <cookie>
  400f8a:	89 c7                	mov    %eax,%edi
  400f8c:	e8 32 1d 00 00       	callq  402cc3 <gencookie>
  400f91:	89 05 69 45 20 00    	mov    %eax,0x204569(%rip)        # 605500 <authkey>
  400f97:	8b 05 93 41 20 00    	mov    0x204193(%rip),%eax        # 605130 <target_id>
  400f9d:	8d 78 01             	lea    0x1(%rax),%edi
  400fa0:	e8 5b fc ff ff       	callq  400c00 <srandom@plt>
  400fa5:	e8 66 fd ff ff       	callq  400d10 <random@plt>
  400faa:	89 c7                	mov    %eax,%edi
  400fac:	e8 c3 02 00 00       	callq  401274 <scramble>
  400fb1:	89 c3                	mov    %eax,%ebx
  400fb3:	85 ed                	test   %ebp,%ebp
  400fb5:	75 3d                	jne    400ff4 <initialize_target+0x8c>
  400fb7:	b8 00 00 00 00       	mov    $0x0,%eax
  400fbc:	01 d8                	add    %ebx,%eax
  400fbe:	0f b7 c0             	movzwl %ax,%eax
  400fc1:	8d 04 c5 00 01 00 00 	lea    0x100(,%rax,8),%eax
  400fc8:	89 c0                	mov    %eax,%eax
  400fca:	48 89 05 af 44 20 00 	mov    %rax,0x2044af(%rip)        # 605480 <buf_offset>
  400fd1:	c6 05 50 51 20 00 72 	movb   $0x72,0x205150(%rip)        # 606128 <target_prefix>
  400fd8:	83 3d a9 44 20 00 00 	cmpl   $0x0,0x2044a9(%rip)        # 605488 <notify>
  400fdf:	74 09                	je     400fea <initialize_target+0x82>
  400fe1:	83 3d 20 45 20 00 00 	cmpl   $0x0,0x204520(%rip)        # 605508 <is_checker>
  400fe8:	74 22                	je     40100c <initialize_target+0xa4>
  400fea:	48 81 c4 08 21 00 00 	add    $0x2108,%rsp
  400ff1:	5b                   	pop    %rbx
  400ff2:	5d                   	pop    %rbp
  400ff3:	c3                   	retq   
  400ff4:	bf 00 00 00 00       	mov    $0x0,%edi
  400ff9:	e8 02 fd ff ff       	callq  400d00 <time@plt>
  400ffe:	89 c7                	mov    %eax,%edi
  401000:	e8 fb fb ff ff       	callq  400c00 <srandom@plt>
  401005:	e8 06 fd ff ff       	callq  400d10 <random@plt>
  40100a:	eb b0                	jmp    400fbc <initialize_target+0x54>
  40100c:	48 89 e7             	mov    %rsp,%rdi
  40100f:	be 00 01 00 00       	mov    $0x100,%esi
  401014:	e8 77 fd ff ff       	callq  400d90 <gethostname@plt>
  401019:	89 c3                	mov    %eax,%ebx
  40101b:	85 c0                	test   %eax,%eax
  40101d:	75 24                	jne    401043 <initialize_target+0xdb>
  40101f:	48 63 c3             	movslq %ebx,%rax
  401022:	48 8d 15 37 41 20 00 	lea    0x204137(%rip),%rdx        # 605160 <host_table>
  401029:	48 8b 3c c2          	mov    (%rdx,%rax,8),%rdi
  40102d:	48 85 ff             	test   %rdi,%rdi
  401030:	74 27                	je     401059 <initialize_target+0xf1>
  401032:	48 89 e6             	mov    %rsp,%rsi
  401035:	e8 a6 fb ff ff       	callq  400be0 <strcasecmp@plt>
  40103a:	85 c0                	test   %eax,%eax
  40103c:	74 1b                	je     401059 <initialize_target+0xf1>
  40103e:	83 c3 01             	add    $0x1,%ebx
  401041:	eb dc                	jmp    40101f <initialize_target+0xb7>
  401043:	48 8d 3d 0e 1e 00 00 	lea    0x1e0e(%rip),%rdi        # 402e58 <_IO_stdin_used+0xe8>
  40104a:	e8 e1 fb ff ff       	callq  400c30 <puts@plt>
  40104f:	bf 08 00 00 00       	mov    $0x8,%edi
  401054:	e8 57 fd ff ff       	callq  400db0 <exit@plt>
  401059:	48 8d bc 24 00 01 00 	lea    0x100(%rsp),%rdi
  401060:	00 
  401061:	e8 e2 19 00 00       	callq  402a48 <init_driver>
  401066:	85 c0                	test   %eax,%eax
  401068:	79 80                	jns    400fea <initialize_target+0x82>
  40106a:	48 8d b4 24 00 01 00 	lea    0x100(%rsp),%rsi
  401071:	00 
  401072:	48 8d 3d 17 1e 00 00 	lea    0x1e17(%rip),%rdi        # 402e90 <_IO_stdin_used+0x120>
  401079:	b8 00 00 00 00       	mov    $0x0,%eax
  40107e:	e8 dd fb ff ff       	callq  400c60 <printf@plt>
  401083:	bf 08 00 00 00       	mov    $0x8,%edi
  401088:	e8 23 fd ff ff       	callq  400db0 <exit@plt>

000000000040108d <main>:
  40108d:	41 56                	push   %r14
  40108f:	41 55                	push   %r13
  401091:	41 54                	push   %r12
  401093:	55                   	push   %rbp
  401094:	53                   	push   %rbx
  401095:	41 89 fc             	mov    %edi,%r12d
  401098:	48 89 f3             	mov    %rsi,%rbx
  40109b:	48 c7 c6 ee 1d 40 00 	mov    $0x401dee,%rsi
  4010a2:	bf 0b 00 00 00       	mov    $0xb,%edi
  4010a7:	e8 04 fc ff ff       	callq  400cb0 <signal@plt>
  4010ac:	48 c7 c6 9a 1d 40 00 	mov    $0x401d9a,%rsi
  4010b3:	bf 07 00 00 00       	mov    $0x7,%edi
  4010b8:	e8 f3 fb ff ff       	callq  400cb0 <signal@plt>
  4010bd:	48 c7 c6 42 1e 40 00 	mov    $0x401e42,%rsi
  4010c4:	bf 04 00 00 00       	mov    $0x4,%edi
  4010c9:	e8 e2 fb ff ff       	callq  400cb0 <signal@plt>
  4010ce:	83 3d 33 44 20 00 00 	cmpl   $0x0,0x204433(%rip)        # 605508 <is_checker>
  4010d5:	75 58                	jne    40112f <main+0xa2>
  4010d7:	48 8d 2d 77 1e 00 00 	lea    0x1e77(%rip),%rbp        # 402f55 <_IO_stdin_used+0x1e5>
  4010de:	48 8b 05 bb 43 20 00 	mov    0x2043bb(%rip),%rax        # 6054a0 <stdin@@GLIBC_2.2.5>
  4010e5:	48 89 05 04 44 20 00 	mov    %rax,0x204404(%rip)        # 6054f0 <infile>
  4010ec:	41 bd 00 00 00 00    	mov    $0x0,%r13d
  4010f2:	41 be 00 00 00 00    	mov    $0x0,%r14d
  4010f8:	48 89 ea             	mov    %rbp,%rdx
  4010fb:	48 89 de             	mov    %rbx,%rsi
  4010fe:	44 89 e7             	mov    %r12d,%edi
  401101:	e8 6a fc ff ff       	callq  400d70 <getopt@plt>
  401106:	3c ff                	cmp    $0xff,%al
  401108:	0f 84 f8 00 00 00    	je     401206 <main+0x179>
  40110e:	0f be f0             	movsbl %al,%esi
  401111:	83 e8 61             	sub    $0x61,%eax
  401114:	3c 10                	cmp    $0x10,%al
  401116:	0f 87 d1 00 00 00    	ja     4011ed <main+0x160>
  40111c:	0f b6 c0             	movzbl %al,%eax
  40111f:	48 8d 15 7a 1e 00 00 	lea    0x1e7a(%rip),%rdx        # 402fa0 <_IO_stdin_used+0x230>
  401126:	48 63 04 82          	movslq (%rdx,%rax,4),%rax
  40112a:	48 01 d0             	add    %rdx,%rax
  40112d:	ff e0                	jmpq   *%rax
  40112f:	48 c7 c6 96 1e 40 00 	mov    $0x401e96,%rsi
  401136:	bf 0e 00 00 00       	mov    $0xe,%edi
  40113b:	e8 70 fb ff ff       	callq  400cb0 <signal@plt>
  401140:	bf 05 00 00 00       	mov    $0x5,%edi
  401145:	e8 36 fb ff ff       	callq  400c80 <alarm@plt>
  40114a:	48 8d 2d 09 1e 00 00 	lea    0x1e09(%rip),%rbp        # 402f5a <_IO_stdin_used+0x1ea>
  401151:	eb 8b                	jmp    4010de <main+0x51>
  401153:	48 8b 3b             	mov    (%rbx),%rdi
  401156:	e8 7b fd ff ff       	callq  400ed6 <usage>
  40115b:	48 8d 35 83 20 00 00 	lea    0x2083(%rip),%rsi        # 4031e5 <_IO_stdin_used+0x475>
  401162:	48 8b 3d 3f 43 20 00 	mov    0x20433f(%rip),%rdi        # 6054a8 <optarg@@GLIBC_2.2.5>
  401169:	e8 f2 fb ff ff       	callq  400d60 <fopen@plt>
  40116e:	48 89 05 7b 43 20 00 	mov    %rax,0x20437b(%rip)        # 6054f0 <infile>
  401175:	48 85 c0             	test   %rax,%rax
  401178:	0f 85 7a ff ff ff    	jne    4010f8 <main+0x6b>
  40117e:	48 8b 15 23 43 20 00 	mov    0x204323(%rip),%rdx        # 6054a8 <optarg@@GLIBC_2.2.5>
  401185:	48 8d 35 d6 1d 00 00 	lea    0x1dd6(%rip),%rsi        # 402f62 <_IO_stdin_used+0x1f2>
  40118c:	48 8b 3d 2d 43 20 00 	mov    0x20432d(%rip),%rdi        # 6054c0 <stderr@@GLIBC_2.2.5>
  401193:	e8 38 fb ff ff       	callq  400cd0 <fprintf@plt>
  401198:	b8 01 00 00 00       	mov    $0x1,%eax
  40119d:	e9 c9 00 00 00       	jmpq   40126b <main+0x1de>
  4011a2:	ba 10 00 00 00       	mov    $0x10,%edx
  4011a7:	be 00 00 00 00       	mov    $0x0,%esi
  4011ac:	48 8b 3d f5 42 20 00 	mov    0x2042f5(%rip),%rdi        # 6054a8 <optarg@@GLIBC_2.2.5>
  4011b3:	e8 c8 fb ff ff       	callq  400d80 <strtoul@plt>
  4011b8:	41 89 c6             	mov    %eax,%r14d
  4011bb:	e9 38 ff ff ff       	jmpq   4010f8 <main+0x6b>
  4011c0:	ba 0a 00 00 00       	mov    $0xa,%edx
  4011c5:	be 00 00 00 00       	mov    $0x0,%esi
  4011ca:	48 8b 3d d7 42 20 00 	mov    0x2042d7(%rip),%rdi        # 6054a8 <optarg@@GLIBC_2.2.5>
  4011d1:	e8 0a fb ff ff       	callq  400ce0 <strtol@plt>
  4011d6:	41 89 c5             	mov    %eax,%r13d
  4011d9:	e9 1a ff ff ff       	jmpq   4010f8 <main+0x6b>
  4011de:	c7 05 a0 42 20 00 00 	movl   $0x0,0x2042a0(%rip)        # 605488 <notify>
  4011e5:	00 00 00 
  4011e8:	e9 0b ff ff ff       	jmpq   4010f8 <main+0x6b>
  4011ed:	48 8d 3d 8b 1d 00 00 	lea    0x1d8b(%rip),%rdi        # 402f7f <_IO_stdin_used+0x20f>
  4011f4:	b8 00 00 00 00       	mov    $0x0,%eax
  4011f9:	e8 62 fa ff ff       	callq  400c60 <printf@plt>
  4011fe:	48 8b 3b             	mov    (%rbx),%rdi
  401201:	e8 d0 fc ff ff       	callq  400ed6 <usage>
  401206:	be 01 00 00 00       	mov    $0x1,%esi
  40120b:	44 89 ef             	mov    %r13d,%edi
  40120e:	e8 55 fd ff ff       	callq  400f68 <initialize_target>
  401213:	83 3d ee 42 20 00 00 	cmpl   $0x0,0x2042ee(%rip)        # 605508 <is_checker>
  40121a:	74 27                	je     401243 <main+0x1b6>
  40121c:	44 3b 35 dd 42 20 00 	cmp    0x2042dd(%rip),%r14d        # 605500 <authkey>
  401223:	74 1e                	je     401243 <main+0x1b6>
  401225:	44 89 f6             	mov    %r14d,%esi
  401228:	48 8d 3d 89 1c 00 00 	lea    0x1c89(%rip),%rdi        # 402eb8 <_IO_stdin_used+0x148>
  40122f:	b8 00 00 00 00       	mov    $0x0,%eax
  401234:	e8 27 fa ff ff       	callq  400c60 <printf@plt>
  401239:	b8 00 00 00 00       	mov    $0x0,%eax
  40123e:	e8 27 08 00 00       	callq  401a6a <check_fail>
  401243:	8b 35 bb 42 20 00    	mov    0x2042bb(%rip),%esi        # 605504 <cookie>
  401249:	48 8d 3d 42 1d 00 00 	lea    0x1d42(%rip),%rdi        # 402f92 <_IO_stdin_used+0x222>
  401250:	b8 00 00 00 00       	mov    $0x0,%eax
  401255:	e8 06 fa ff ff       	callq  400c60 <printf@plt>
  40125a:	48 8b 3d 1f 42 20 00 	mov    0x20421f(%rip),%rdi        # 605480 <buf_offset>
  401261:	e8 82 0c 00 00       	callq  401ee8 <launch>
  401266:	b8 00 00 00 00       	mov    $0x0,%eax
  40126b:	5b                   	pop    %rbx
  40126c:	5d                   	pop    %rbp
  40126d:	41 5c                	pop    %r12
  40126f:	41 5d                	pop    %r13
  401271:	41 5e                	pop    %r14
  401273:	c3                   	retq   

0000000000401274 <scramble>:
  401274:	b8 00 00 00 00       	mov    $0x0,%eax
  401279:	eb 11                	jmp    40128c <scramble+0x18>
  40127b:	69 d0 45 7d 00 00    	imul   $0x7d45,%eax,%edx
  401281:	01 fa                	add    %edi,%edx
  401283:	89 c1                	mov    %eax,%ecx
  401285:	89 54 8c d0          	mov    %edx,-0x30(%rsp,%rcx,4)
  401289:	83 c0 01             	add    $0x1,%eax
  40128c:	83 f8 09             	cmp    $0x9,%eax
  40128f:	76 ea                	jbe    40127b <scramble+0x7>
  401291:	8b 44 24 dc          	mov    -0x24(%rsp),%eax
  401295:	69 c0 97 2b 00 00    	imul   $0x2b97,%eax,%eax
  40129b:	89 44 24 dc          	mov    %eax,-0x24(%rsp)
  40129f:	8b 44 24 ec          	mov    -0x14(%rsp),%eax
  4012a3:	69 c0 ee a0 00 00    	imul   $0xa0ee,%eax,%eax
  4012a9:	89 44 24 ec          	mov    %eax,-0x14(%rsp)
  4012ad:	8b 44 24 dc          	mov    -0x24(%rsp),%eax
  4012b1:	69 c0 81 9d 00 00    	imul   $0x9d81,%eax,%eax
  4012b7:	89 44 24 dc          	mov    %eax,-0x24(%rsp)
  4012bb:	8b 44 24 e8          	mov    -0x18(%rsp),%eax
  4012bf:	69 c0 4a e8 00 00    	imul   $0xe84a,%eax,%eax
  4012c5:	89 44 24 e8          	mov    %eax,-0x18(%rsp)
  4012c9:	8b 44 24 e8          	mov    -0x18(%rsp),%eax
  4012cd:	69 c0 05 33 00 00    	imul   $0x3305,%eax,%eax
  4012d3:	89 44 24 e8          	mov    %eax,-0x18(%rsp)
  4012d7:	8b 44 24 d0          	mov    -0x30(%rsp),%eax
  4012db:	69 c0 89 6a 00 00    	imul   $0x6a89,%eax,%eax
  4012e1:	89 44 24 d0          	mov    %eax,-0x30(%rsp)
  4012e5:	8b 44 24 f4          	mov    -0xc(%rsp),%eax
  4012e9:	69 c0 0c 10 00 00    	imul   $0x100c,%eax,%eax
  4012ef:	89 44 24 f4          	mov    %eax,-0xc(%rsp)
  4012f3:	8b 44 24 ec          	mov    -0x14(%rsp),%eax
  4012f7:	69 c0 db 60 00 00    	imul   $0x60db,%eax,%eax
  4012fd:	89 44 24 ec          	mov    %eax,-0x14(%rsp)
  401301:	8b 44 24 e0          	mov    -0x20(%rsp),%eax
  401305:	69 c0 68 fb 00 00    	imul   $0xfb68,%eax,%eax
  40130b:	89 44 24 e0          	mov    %eax,-0x20(%rsp)
  40130f:	8b 44 24 f4          	mov    -0xc(%rsp),%eax
  401313:	69 c0 bc 78 00 00    	imul   $0x78bc,%eax,%eax
  401319:	89 44 24 f4          	mov    %eax,-0xc(%rsp)
  40131d:	8b 44 24 e0          	mov    -0x20(%rsp),%eax
  401321:	69 c0 8b 0d 00 00    	imul   $0xd8b,%eax,%eax
  401327:	89 44 24 e0          	mov    %eax,-0x20(%rsp)
  40132b:	8b 44 24 d8          	mov    -0x28(%rsp),%eax
  40132f:	69 c0 24 7f 00 00    	imul   $0x7f24,%eax,%eax
  401335:	89 44 24 d8          	mov    %eax,-0x28(%rsp)
  401339:	8b 44 24 d4          	mov    -0x2c(%rsp),%eax
  40133d:	69 c0 0e 01 00 00    	imul   $0x10e,%eax,%eax
  401343:	89 44 24 d4          	mov    %eax,-0x2c(%rsp)
  401347:	8b 44 24 f0          	mov    -0x10(%rsp),%eax
  40134b:	69 c0 5c 89 00 00    	imul   $0x895c,%eax,%eax
  401351:	89 44 24 f0          	mov    %eax,-0x10(%rsp)
  401355:	8b 44 24 d4          	mov    -0x2c(%rsp),%eax
  401359:	69 c0 26 7a 00 00    	imul   $0x7a26,%eax,%eax
  40135f:	89 44 24 d4          	mov    %eax,-0x2c(%rsp)
  401363:	8b 44 24 f4          	mov    -0xc(%rsp),%eax
  401367:	69 c0 83 6b 00 00    	imul   $0x6b83,%eax,%eax
  40136d:	89 44 24 f4          	mov    %eax,-0xc(%rsp)
  401371:	8b 44 24 d8          	mov    -0x28(%rsp),%eax
  401375:	69 c0 72 53 00 00    	imul   $0x5372,%eax,%eax
  40137b:	89 44 24 d8          	mov    %eax,-0x28(%rsp)
  40137f:	8b 44 24 ec          	mov    -0x14(%rsp),%eax
  401383:	69 c0 9b 60 00 00    	imul   $0x609b,%eax,%eax
  401389:	89 44 24 ec          	mov    %eax,-0x14(%rsp)
  40138d:	8b 44 24 f4          	mov    -0xc(%rsp),%eax
  401391:	69 c0 b3 5f 00 00    	imul   $0x5fb3,%eax,%eax
  401397:	89 44 24 f4          	mov    %eax,-0xc(%rsp)
  40139b:	8b 44 24 dc          	mov    -0x24(%rsp),%eax
  40139f:	69 c0 85 6f 00 00    	imul   $0x6f85,%eax,%eax
  4013a5:	89 44 24 dc          	mov    %eax,-0x24(%rsp)
  4013a9:	8b 44 24 d8          	mov    -0x28(%rsp),%eax
  4013ad:	69 c0 f9 77 00 00    	imul   $0x77f9,%eax,%eax
  4013b3:	89 44 24 d8          	mov    %eax,-0x28(%rsp)
  4013b7:	8b 44 24 f0          	mov    -0x10(%rsp),%eax
  4013bb:	69 c0 63 5b 00 00    	imul   $0x5b63,%eax,%eax
  4013c1:	89 44 24 f0          	mov    %eax,-0x10(%rsp)
  4013c5:	8b 44 24 d0          	mov    -0x30(%rsp),%eax
  4013c9:	69 c0 3d d7 00 00    	imul   $0xd73d,%eax,%eax
  4013cf:	89 44 24 d0          	mov    %eax,-0x30(%rsp)
  4013d3:	8b 44 24 dc          	mov    -0x24(%rsp),%eax
  4013d7:	69 c0 45 f3 00 00    	imul   $0xf345,%eax,%eax
  4013dd:	89 44 24 dc          	mov    %eax,-0x24(%rsp)
  4013e1:	8b 44 24 d4          	mov    -0x2c(%rsp),%eax
  4013e5:	69 c0 ad b5 00 00    	imul   $0xb5ad,%eax,%eax
  4013eb:	89 44 24 d4          	mov    %eax,-0x2c(%rsp)
  4013ef:	8b 44 24 f0          	mov    -0x10(%rsp),%eax
  4013f3:	69 c0 ac 83 00 00    	imul   $0x83ac,%eax,%eax
  4013f9:	89 44 24 f0          	mov    %eax,-0x10(%rsp)
  4013fd:	8b 44 24 ec          	mov    -0x14(%rsp),%eax
  401401:	69 c0 e3 ac 00 00    	imul   $0xace3,%eax,%eax
  401407:	89 44 24 ec          	mov    %eax,-0x14(%rsp)
  40140b:	8b 44 24 ec          	mov    -0x14(%rsp),%eax
  40140f:	69 c0 0e 41 00 00    	imul   $0x410e,%eax,%eax
  401415:	89 44 24 ec          	mov    %eax,-0x14(%rsp)
  401419:	8b 44 24 d4          	mov    -0x2c(%rsp),%eax
  40141d:	69 c0 32 76 00 00    	imul   $0x7632,%eax,%eax
  401423:	89 44 24 d4          	mov    %eax,-0x2c(%rsp)
  401427:	8b 44 24 f0          	mov    -0x10(%rsp),%eax
  40142b:	69 c0 30 9c 00 00    	imul   $0x9c30,%eax,%eax
  401431:	89 44 24 f0          	mov    %eax,-0x10(%rsp)
  401435:	8b 44 24 e4          	mov    -0x1c(%rsp),%eax
  401439:	69 c0 8c b7 00 00    	imul   $0xb78c,%eax,%eax
  40143f:	89 44 24 e4          	mov    %eax,-0x1c(%rsp)
  401443:	8b 44 24 f4          	mov    -0xc(%rsp),%eax
  401447:	69 c0 15 96 00 00    	imul   $0x9615,%eax,%eax
  40144d:	89 44 24 f4          	mov    %eax,-0xc(%rsp)
  401451:	8b 44 24 e8          	mov    -0x18(%rsp),%eax
  401455:	69 c0 25 14 00 00    	imul   $0x1425,%eax,%eax
  40145b:	89 44 24 e8          	mov    %eax,-0x18(%rsp)
  40145f:	8b 44 24 e4          	mov    -0x1c(%rsp),%eax
  401463:	69 c0 f2 fb 00 00    	imul   $0xfbf2,%eax,%eax
  401469:	89 44 24 e4          	mov    %eax,-0x1c(%rsp)
  40146d:	8b 44 24 e0          	mov    -0x20(%rsp),%eax
  401471:	69 c0 95 3f 00 00    	imul   $0x3f95,%eax,%eax
  401477:	89 44 24 e0          	mov    %eax,-0x20(%rsp)
  40147b:	8b 44 24 e4          	mov    -0x1c(%rsp),%eax
  40147f:	69 c0 92 06 00 00    	imul   $0x692,%eax,%eax
  401485:	89 44 24 e4          	mov    %eax,-0x1c(%rsp)
  401489:	8b 44 24 e4          	mov    -0x1c(%rsp),%eax
  40148d:	69 c0 86 45 00 00    	imul   $0x4586,%eax,%eax
  401493:	89 44 24 e4          	mov    %eax,-0x1c(%rsp)
  401497:	8b 44 24 e0          	mov    -0x20(%rsp),%eax
  40149b:	69 c0 95 3f 00 00    	imul   $0x3f95,%eax,%eax
  4014a1:	89 44 24 e0          	mov    %eax,-0x20(%rsp)
  4014a5:	8b 44 24 f0          	mov    -0x10(%rsp),%eax
  4014a9:	69 c0 33 1e 00 00    	imul   $0x1e33,%eax,%eax
  4014af:	89 44 24 f0          	mov    %eax,-0x10(%rsp)
  4014b3:	8b 44 24 e0          	mov    -0x20(%rsp),%eax
  4014b7:	69 c0 69 ef 00 00    	imul   $0xef69,%eax,%eax
  4014bd:	89 44 24 e0          	mov    %eax,-0x20(%rsp)
  4014c1:	8b 44 24 d8          	mov    -0x28(%rsp),%eax
  4014c5:	69 c0 db 9e 00 00    	imul   $0x9edb,%eax,%eax
  4014cb:	89 44 24 d8          	mov    %eax,-0x28(%rsp)
  4014cf:	8b 44 24 e8          	mov    -0x18(%rsp),%eax
  4014d3:	69 c0 18 97 00 00    	imul   $0x9718,%eax,%eax
  4014d9:	89 44 24 e8          	mov    %eax,-0x18(%rsp)
  4014dd:	8b 44 24 e4          	mov    -0x1c(%rsp),%eax
  4014e1:	69 c0 e7 75 00 00    	imul   $0x75e7,%eax,%eax
  4014e7:	89 44 24 e4          	mov    %eax,-0x1c(%rsp)
  4014eb:	8b 44 24 dc          	mov    -0x24(%rsp),%eax
  4014ef:	69 c0 af f9 00 00    	imul   $0xf9af,%eax,%eax
  4014f5:	89 44 24 dc          	mov    %eax,-0x24(%rsp)
  4014f9:	8b 44 24 dc          	mov    -0x24(%rsp),%eax
  4014fd:	69 c0 92 a2 00 00    	imul   $0xa292,%eax,%eax
  401503:	89 44 24 dc          	mov    %eax,-0x24(%rsp)
  401507:	8b 44 24 d8          	mov    -0x28(%rsp),%eax
  40150b:	69 c0 71 dc 00 00    	imul   $0xdc71,%eax,%eax
  401511:	89 44 24 d8          	mov    %eax,-0x28(%rsp)
  401515:	8b 44 24 d0          	mov    -0x30(%rsp),%eax
  401519:	69 c0 93 9d 00 00    	imul   $0x9d93,%eax,%eax
  40151f:	89 44 24 d0          	mov    %eax,-0x30(%rsp)
  401523:	8b 44 24 e8          	mov    -0x18(%rsp),%eax
  401527:	69 c0 1d 65 00 00    	imul   $0x651d,%eax,%eax
  40152d:	89 44 24 e8          	mov    %eax,-0x18(%rsp)
  401531:	8b 44 24 d0          	mov    -0x30(%rsp),%eax
  401535:	69 c0 37 69 00 00    	imul   $0x6937,%eax,%eax
  40153b:	89 44 24 d0          	mov    %eax,-0x30(%rsp)
  40153f:	8b 44 24 e8          	mov    -0x18(%rsp),%eax
  401543:	69 c0 91 25 00 00    	imul   $0x2591,%eax,%eax
  401549:	89 44 24 e8          	mov    %eax,-0x18(%rsp)
  40154d:	8b 44 24 d4          	mov    -0x2c(%rsp),%eax
  401551:	69 c0 88 cc 00 00    	imul   $0xcc88,%eax,%eax
  401557:	89 44 24 d4          	mov    %eax,-0x2c(%rsp)
  40155b:	8b 44 24 e0          	mov    -0x20(%rsp),%eax
  40155f:	69 c0 5b 60 00 00    	imul   $0x605b,%eax,%eax
  401565:	89 44 24 e0          	mov    %eax,-0x20(%rsp)
  401569:	8b 44 24 e0          	mov    -0x20(%rsp),%eax
  40156d:	69 c0 18 8e 00 00    	imul   $0x8e18,%eax,%eax
  401573:	89 44 24 e0          	mov    %eax,-0x20(%rsp)
  401577:	8b 44 24 e8          	mov    -0x18(%rsp),%eax
  40157b:	69 c0 d2 2e 00 00    	imul   $0x2ed2,%eax,%eax
  401581:	89 44 24 e8          	mov    %eax,-0x18(%rsp)
  401585:	8b 44 24 d0          	mov    -0x30(%rsp),%eax
  401589:	69 c0 ca d2 00 00    	imul   $0xd2ca,%eax,%eax
  40158f:	89 44 24 d0          	mov    %eax,-0x30(%rsp)
  401593:	8b 44 24 e4          	mov    -0x1c(%rsp),%eax
  401597:	69 c0 2c 80 00 00    	imul   $0x802c,%eax,%eax
  40159d:	89 44 24 e4          	mov    %eax,-0x1c(%rsp)
  4015a1:	8b 44 24 ec          	mov    -0x14(%rsp),%eax
  4015a5:	69 c0 52 91 00 00    	imul   $0x9152,%eax,%eax
  4015ab:	89 44 24 ec          	mov    %eax,-0x14(%rsp)
  4015af:	8b 44 24 e4          	mov    -0x1c(%rsp),%eax
  4015b3:	69 c0 63 bd 00 00    	imul   $0xbd63,%eax,%eax
  4015b9:	89 44 24 e4          	mov    %eax,-0x1c(%rsp)
  4015bd:	8b 44 24 f4          	mov    -0xc(%rsp),%eax
  4015c1:	69 c0 6c ef 00 00    	imul   $0xef6c,%eax,%eax
  4015c7:	89 44 24 f4          	mov    %eax,-0xc(%rsp)
  4015cb:	8b 44 24 e0          	mov    -0x20(%rsp),%eax
  4015cf:	69 c0 52 f3 00 00    	imul   $0xf352,%eax,%eax
  4015d5:	89 44 24 e0          	mov    %eax,-0x20(%rsp)
  4015d9:	8b 44 24 d4          	mov    -0x2c(%rsp),%eax
  4015dd:	69 c0 f2 4c 00 00    	imul   $0x4cf2,%eax,%eax
  4015e3:	89 44 24 d4          	mov    %eax,-0x2c(%rsp)
  4015e7:	8b 44 24 d4          	mov    -0x2c(%rsp),%eax
  4015eb:	69 c0 1c ec 00 00    	imul   $0xec1c,%eax,%eax
  4015f1:	89 44 24 d4          	mov    %eax,-0x2c(%rsp)
  4015f5:	8b 44 24 f0          	mov    -0x10(%rsp),%eax
  4015f9:	69 c0 49 42 00 00    	imul   $0x4249,%eax,%eax
  4015ff:	89 44 24 f0          	mov    %eax,-0x10(%rsp)
  401603:	8b 44 24 d0          	mov    -0x30(%rsp),%eax
  401607:	69 c0 3e 9c 00 00    	imul   $0x9c3e,%eax,%eax
  40160d:	89 44 24 d0          	mov    %eax,-0x30(%rsp)
  401611:	8b 44 24 d4          	mov    -0x2c(%rsp),%eax
  401615:	69 c0 4a b2 00 00    	imul   $0xb24a,%eax,%eax
  40161b:	89 44 24 d4          	mov    %eax,-0x2c(%rsp)
  40161f:	8b 44 24 e8          	mov    -0x18(%rsp),%eax
  401623:	69 c0 4d 54 00 00    	imul   $0x544d,%eax,%eax
  401629:	89 44 24 e8          	mov    %eax,-0x18(%rsp)
  40162d:	8b 44 24 f0          	mov    -0x10(%rsp),%eax
  401631:	69 c0 f3 ed 00 00    	imul   $0xedf3,%eax,%eax
  401637:	89 44 24 f0          	mov    %eax,-0x10(%rsp)
  40163b:	8b 44 24 dc          	mov    -0x24(%rsp),%eax
  40163f:	69 c0 e0 90 00 00    	imul   $0x90e0,%eax,%eax
  401645:	89 44 24 dc          	mov    %eax,-0x24(%rsp)
  401649:	8b 44 24 dc          	mov    -0x24(%rsp),%eax
  40164d:	69 c0 99 54 00 00    	imul   $0x5499,%eax,%eax
  401653:	89 44 24 dc          	mov    %eax,-0x24(%rsp)
  401657:	8b 44 24 d4          	mov    -0x2c(%rsp),%eax
  40165b:	69 c0 57 28 00 00    	imul   $0x2857,%eax,%eax
  401661:	89 44 24 d4          	mov    %eax,-0x2c(%rsp)
  401665:	8b 44 24 e0          	mov    -0x20(%rsp),%eax
  401669:	69 c0 ef dd 00 00    	imul   $0xddef,%eax,%eax
  40166f:	89 44 24 e0          	mov    %eax,-0x20(%rsp)
  401673:	8b 44 24 ec          	mov    -0x14(%rsp),%eax
  401677:	69 c0 09 99 00 00    	imul   $0x9909,%eax,%eax
  40167d:	89 44 24 ec          	mov    %eax,-0x14(%rsp)
  401681:	8b 44 24 e0          	mov    -0x20(%rsp),%eax
  401685:	69 c0 c9 bf 00 00    	imul   $0xbfc9,%eax,%eax
  40168b:	89 44 24 e0          	mov    %eax,-0x20(%rsp)
  40168f:	8b 44 24 ec          	mov    -0x14(%rsp),%eax
  401693:	69 c0 7a 76 00 00    	imul   $0x767a,%eax,%eax
  401699:	89 44 24 ec          	mov    %eax,-0x14(%rsp)
  40169d:	8b 44 24 e0          	mov    -0x20(%rsp),%eax
  4016a1:	69 c0 7f 0d 00 00    	imul   $0xd7f,%eax,%eax
  4016a7:	89 44 24 e0          	mov    %eax,-0x20(%rsp)
  4016ab:	8b 44 24 d0          	mov    -0x30(%rsp),%eax
  4016af:	69 c0 33 41 00 00    	imul   $0x4133,%eax,%eax
  4016b5:	89 44 24 d0          	mov    %eax,-0x30(%rsp)
  4016b9:	8b 44 24 f4          	mov    -0xc(%rsp),%eax
  4016bd:	69 c0 8f 39 00 00    	imul   $0x398f,%eax,%eax
  4016c3:	89 44 24 f4          	mov    %eax,-0xc(%rsp)
  4016c7:	8b 44 24 f0          	mov    -0x10(%rsp),%eax
  4016cb:	69 c0 f7 44 00 00    	imul   $0x44f7,%eax,%eax
  4016d1:	89 44 24 f0          	mov    %eax,-0x10(%rsp)
  4016d5:	8b 44 24 dc          	mov    -0x24(%rsp),%eax
  4016d9:	69 c0 89 7e 00 00    	imul   $0x7e89,%eax,%eax
  4016df:	89 44 24 dc          	mov    %eax,-0x24(%rsp)
  4016e3:	8b 44 24 f4          	mov    -0xc(%rsp),%eax
  4016e7:	69 c0 59 27 00 00    	imul   $0x2759,%eax,%eax
  4016ed:	89 44 24 f4          	mov    %eax,-0xc(%rsp)
  4016f1:	8b 44 24 f0          	mov    -0x10(%rsp),%eax
  4016f5:	69 c0 05 a3 00 00    	imul   $0xa305,%eax,%eax
  4016fb:	89 44 24 f0          	mov    %eax,-0x10(%rsp)
  4016ff:	8b 44 24 d8          	mov    -0x28(%rsp),%eax
  401703:	69 c0 a5 af 00 00    	imul   $0xafa5,%eax,%eax
  401709:	89 44 24 d8          	mov    %eax,-0x28(%rsp)
  40170d:	ba 00 00 00 00       	mov    $0x0,%edx
  401712:	b8 00 00 00 00       	mov    $0x0,%eax
  401717:	eb 0b                	jmp    401724 <scramble+0x4b0>
  401719:	89 d1                	mov    %edx,%ecx
  40171b:	8b 4c 8c d0          	mov    -0x30(%rsp,%rcx,4),%ecx
  40171f:	01 c8                	add    %ecx,%eax
  401721:	83 c2 01             	add    $0x1,%edx
  401724:	83 fa 09             	cmp    $0x9,%edx
  401727:	76 f0                	jbe    401719 <scramble+0x4a5>
  401729:	f3 c3                	repz retq 

000000000040172b <getbuf>:
  40172b:	48 83 ec 38          	sub    $0x38,%rsp
  40172f:	48 89 e7             	mov    %rsp,%rdi
  401732:	e8 66 03 00 00       	callq  401a9d <Gets>
  401737:	b8 01 00 00 00       	mov    $0x1,%eax
  40173c:	48 83 c4 38          	add    $0x38,%rsp
  401740:	c3                   	retq   

0000000000401741 <touch1>:
  401741:	48 83 ec 08          	sub    $0x8,%rsp
  401745:	c7 05 ad 3d 20 00 01 	movl   $0x1,0x203dad(%rip)        # 6054fc <vlevel>
  40174c:	00 00 00 
  40174f:	48 8d 3d e8 18 00 00 	lea    0x18e8(%rip),%rdi        # 40303e <_IO_stdin_used+0x2ce>
  401756:	e8 d5 f4 ff ff       	callq  400c30 <puts@plt>
  40175b:	bf 01 00 00 00       	mov    $0x1,%edi
  401760:	e8 4f 05 00 00       	callq  401cb4 <validate>
  401765:	bf 00 00 00 00       	mov    $0x0,%edi
  40176a:	e8 41 f6 ff ff       	callq  400db0 <exit@plt>

000000000040176f <touch2>:
  40176f:	48 83 ec 08          	sub    $0x8,%rsp
  401773:	89 fe                	mov    %edi,%esi
  401775:	c7 05 7d 3d 20 00 02 	movl   $0x2,0x203d7d(%rip)        # 6054fc <vlevel>
  40177c:	00 00 00 
  40177f:	39 3d 7f 3d 20 00    	cmp    %edi,0x203d7f(%rip)        # 605504 <cookie>
  401785:	74 25                	je     4017ac <touch2+0x3d>
  401787:	48 8d 3d fa 18 00 00 	lea    0x18fa(%rip),%rdi        # 403088 <_IO_stdin_used+0x318>
  40178e:	b8 00 00 00 00       	mov    $0x0,%eax
  401793:	e8 c8 f4 ff ff       	callq  400c60 <printf@plt>
  401798:	bf 02 00 00 00       	mov    $0x2,%edi
  40179d:	e8 d0 05 00 00       	callq  401d72 <fail>
  4017a2:	bf 00 00 00 00       	mov    $0x0,%edi
  4017a7:	e8 04 f6 ff ff       	callq  400db0 <exit@plt>
  4017ac:	48 8d 3d ad 18 00 00 	lea    0x18ad(%rip),%rdi        # 403060 <_IO_stdin_used+0x2f0>
  4017b3:	b8 00 00 00 00       	mov    $0x0,%eax
  4017b8:	e8 a3 f4 ff ff       	callq  400c60 <printf@plt>
  4017bd:	bf 02 00 00 00       	mov    $0x2,%edi
  4017c2:	e8 ed 04 00 00       	callq  401cb4 <validate>
  4017c7:	eb d9                	jmp    4017a2 <touch2+0x33>

00000000004017c9 <hexmatch>:
  4017c9:	41 54                	push   %r12
  4017cb:	55                   	push   %rbp
  4017cc:	53                   	push   %rbx
  4017cd:	48 83 ec 70          	sub    $0x70,%rsp
  4017d1:	89 fd                	mov    %edi,%ebp
  4017d3:	48 89 f3             	mov    %rsi,%rbx
  4017d6:	e8 35 f5 ff ff       	callq  400d10 <random@plt>
  4017db:	48 89 c1             	mov    %rax,%rcx
  4017de:	48 ba 0b d7 a3 70 3d 	movabs $0xa3d70a3d70a3d70b,%rdx
  4017e5:	0a d7 a3 
  4017e8:	48 f7 ea             	imul   %rdx
  4017eb:	48 01 ca             	add    %rcx,%rdx
  4017ee:	48 c1 fa 06          	sar    $0x6,%rdx
  4017f2:	48 89 c8             	mov    %rcx,%rax
  4017f5:	48 c1 f8 3f          	sar    $0x3f,%rax
  4017f9:	48 29 c2             	sub    %rax,%rdx
  4017fc:	48 8d 04 92          	lea    (%rdx,%rdx,4),%rax
  401800:	48 8d 14 80          	lea    (%rax,%rax,4),%rdx
  401804:	48 8d 04 95 00 00 00 	lea    0x0(,%rdx,4),%rax
  40180b:	00 
  40180c:	48 29 c1             	sub    %rax,%rcx
  40180f:	4c 8d 24 0c          	lea    (%rsp,%rcx,1),%r12
  401813:	89 ea                	mov    %ebp,%edx
  401815:	48 8d 35 3f 18 00 00 	lea    0x183f(%rip),%rsi        # 40305b <_IO_stdin_used+0x2eb>
  40181c:	4c 89 e7             	mov    %r12,%rdi
  40181f:	b8 00 00 00 00       	mov    $0x0,%eax
  401824:	e8 77 f5 ff ff       	callq  400da0 <sprintf@plt>
  401829:	ba 09 00 00 00       	mov    $0x9,%edx
  40182e:	4c 89 e6             	mov    %r12,%rsi
  401831:	48 89 df             	mov    %rbx,%rdi
  401834:	e8 d7 f3 ff ff       	callq  400c10 <strncmp@plt>
  401839:	85 c0                	test   %eax,%eax
  40183b:	0f 94 c0             	sete   %al
  40183e:	0f b6 c0             	movzbl %al,%eax
  401841:	48 83 c4 70          	add    $0x70,%rsp
  401845:	5b                   	pop    %rbx
  401846:	5d                   	pop    %rbp
  401847:	41 5c                	pop    %r12
  401849:	c3                   	retq   

000000000040184a <touch3>:
  40184a:	53                   	push   %rbx
  40184b:	48 89 fb             	mov    %rdi,%rbx
  40184e:	c7 05 a4 3c 20 00 03 	movl   $0x3,0x203ca4(%rip)        # 6054fc <vlevel>
  401855:	00 00 00 
  401858:	48 89 fe             	mov    %rdi,%rsi
  40185b:	8b 3d a3 3c 20 00    	mov    0x203ca3(%rip),%edi        # 605504 <cookie>
  401861:	e8 63 ff ff ff       	callq  4017c9 <hexmatch>
  401866:	85 c0                	test   %eax,%eax
  401868:	74 28                	je     401892 <touch3+0x48>
  40186a:	48 89 de             	mov    %rbx,%rsi
  40186d:	48 8d 3d 3c 18 00 00 	lea    0x183c(%rip),%rdi        # 4030b0 <_IO_stdin_used+0x340>
  401874:	b8 00 00 00 00       	mov    $0x0,%eax
  401879:	e8 e2 f3 ff ff       	callq  400c60 <printf@plt>
  40187e:	bf 03 00 00 00       	mov    $0x3,%edi
  401883:	e8 2c 04 00 00       	callq  401cb4 <validate>
  401888:	bf 00 00 00 00       	mov    $0x0,%edi
  40188d:	e8 1e f5 ff ff       	callq  400db0 <exit@plt>
  401892:	48 89 de             	mov    %rbx,%rsi
  401895:	48 8d 3d 3c 18 00 00 	lea    0x183c(%rip),%rdi        # 4030d8 <_IO_stdin_used+0x368>
  40189c:	b8 00 00 00 00       	mov    $0x0,%eax
  4018a1:	e8 ba f3 ff ff       	callq  400c60 <printf@plt>
  4018a6:	bf 03 00 00 00       	mov    $0x3,%edi
  4018ab:	e8 c2 04 00 00       	callq  401d72 <fail>
  4018b0:	eb d6                	jmp    401888 <touch3+0x3e>

00000000004018b2 <test>:
  4018b2:	48 83 ec 08          	sub    $0x8,%rsp
  4018b6:	b8 00 00 00 00       	mov    $0x0,%eax
  4018bb:	e8 6b fe ff ff       	callq  40172b <getbuf>
  4018c0:	89 c6                	mov    %eax,%esi
  4018c2:	48 8d 3d 37 18 00 00 	lea    0x1837(%rip),%rdi        # 403100 <_IO_stdin_used+0x390>
  4018c9:	b8 00 00 00 00       	mov    $0x0,%eax
  4018ce:	e8 8d f3 ff ff       	callq  400c60 <printf@plt>
  4018d3:	48 83 c4 08          	add    $0x8,%rsp
  4018d7:	c3                   	retq   

00000000004018d8 <start_farm>:
  4018d8:	b8 01 00 00 00       	mov    $0x1,%eax
  4018dd:	c3                   	retq   

00000000004018de <getval_473>:
  4018de:	b8 cf 50 90 90       	mov    $0x909050cf,%eax
  4018e3:	c3                   	retq   

00000000004018e4 <addval_292>:
  4018e4:	8d 87 48 89 c7 c3    	lea    -0x3c3876b8(%rdi),%eax
  4018ea:	c3                   	retq   

00000000004018eb <setval_474>:
  4018eb:	c7 07 34 48 89 c7    	movl   $0xc7894834,(%rdi)
  4018f1:	c3                   	retq   

00000000004018f2 <getval_136>:
  4018f2:	b8 08 89 c7 c3       	mov    $0xc3c78908,%eax
  4018f7:	c3                   	retq   

00000000004018f8 <setval_123>:
  4018f8:	c7 07 f8 38 58 c2    	movl   $0xc25838f8,(%rdi)
  4018fe:	c3                   	retq   

00000000004018ff <addval_351>:
  4018ff:	8d 87 28 45 c3 58    	lea    0x58c34528(%rdi),%eax
  401905:	c3                   	retq   

0000000000401906 <setval_286>:
  401906:	c7 07 58 90 90 90    	movl   $0x90909058,(%rdi)
  40190c:	c3                   	retq   

000000000040190d <addval_410>:
  40190d:	8d 87 6f 4c 89 c7    	lea    -0x3876b391(%rdi),%eax
  401913:	c3                   	retq   

0000000000401914 <mid_farm>:
  401914:	b8 01 00 00 00       	mov    $0x1,%eax
  401919:	c3                   	retq   

000000000040191a <add_xy>:
  40191a:	48 8d 04 37          	lea    (%rdi,%rsi,1),%rax
  40191e:	c3                   	retq   

000000000040191f <setval_120>:
  40191f:	c7 07 89 d6 90 c3    	movl   $0xc390d689,(%rdi)
  401925:	c3                   	retq   

0000000000401926 <getval_425>:
  401926:	b8 ec 89 ca 90       	mov    $0x90ca89ec,%eax
  40192b:	c3                   	retq   

000000000040192c <addval_154>:
  40192c:	8d 87 89 ca 94 db    	lea    -0x246b3577(%rdi),%eax
  401932:	c3                   	retq   

0000000000401933 <getval_322>:
  401933:	b8 a3 89 d6 94       	mov    $0x94d689a3,%eax
  401938:	c3                   	retq   

0000000000401939 <setval_337>:
  401939:	c7 07 48 89 e0 c7    	movl   $0xc7e08948,(%rdi)
  40193f:	c3                   	retq   

0000000000401940 <setval_167>:
  401940:	c7 07 89 ca 38 db    	movl   $0xdb38ca89,(%rdi)
  401946:	c3                   	retq   

0000000000401947 <addval_356>:
  401947:	8d 87 8d c1 38 c9    	lea    -0x36c73e73(%rdi),%eax
  40194d:	c3                   	retq   

000000000040194e <setval_101>:
  40194e:	c7 07 89 c1 c4 db    	movl   $0xdbc4c189,(%rdi)
  401954:	c3                   	retq   

0000000000401955 <addval_498>:
  401955:	8d 87 89 c1 20 c0    	lea    -0x3fdf3e77(%rdi),%eax
  40195b:	c3                   	retq   

000000000040195c <getval_415>:
  40195c:	b8 2f 89 d6 c1       	mov    $0xc1d6892f,%eax
  401961:	c3                   	retq   

0000000000401962 <setval_173>:
  401962:	c7 07 63 09 d6 90    	movl   $0x90d60963,(%rdi)
  401968:	c3                   	retq   

0000000000401969 <setval_279>:
  401969:	c7 07 48 89 e0 c1    	movl   $0xc1e08948,(%rdi)
  40196f:	c3                   	retq   

0000000000401970 <getval_207>:
  401970:	b8 89 d6 84 db       	mov    $0xdb84d689,%eax
  401975:	c3                   	retq   

0000000000401976 <setval_282>:
  401976:	c7 07 39 89 ca 91    	movl   $0x91ca8939,(%rdi)
  40197c:	c3                   	retq   

000000000040197d <addval_208>:
  40197d:	8d 87 40 89 e0 c3    	lea    -0x3c1f76c0(%rdi),%eax
  401983:	c3                   	retq   

0000000000401984 <getval_250>:
  401984:	b8 48 89 e0 94       	mov    $0x94e08948,%eax
  401989:	c3                   	retq   

000000000040198a <setval_323>:
  40198a:	c7 07 89 ca c1 dc    	movl   $0xdcc1ca89,(%rdi)
  401990:	c3                   	retq   

0000000000401991 <getval_316>:
  401991:	b8 48 8d e0 c3       	mov    $0xc3e08d48,%eax
  401996:	c3                   	retq   

0000000000401997 <addval_289>:
  401997:	8d 87 89 c1 90 c3    	lea    -0x3c6f3e77(%rdi),%eax
  40199d:	c3                   	retq   

000000000040199e <getval_342>:
  40199e:	b8 81 ca 08 d2       	mov    $0xd208ca81,%eax
  4019a3:	c3                   	retq   

00000000004019a4 <addval_295>:
  4019a4:	8d 87 89 ca 94 d2    	lea    -0x2d6b3577(%rdi),%eax
  4019aa:	c3                   	retq   

00000000004019ab <getval_240>:
  4019ab:	b8 89 d6 94 c9       	mov    $0xc994d689,%eax
  4019b0:	c3                   	retq   

00000000004019b1 <addval_396>:
  4019b1:	8d 87 89 c1 00 c0    	lea    -0x3fff3e77(%rdi),%eax
  4019b7:	c3                   	retq   

00000000004019b8 <getval_153>:
  4019b8:	b8 48 89 e0 c3       	mov    $0xc3e08948,%eax
  4019bd:	c3                   	retq   

00000000004019be <setval_463>:
  4019be:	c7 07 a9 d6 08 db    	movl   $0xdb08d6a9,(%rdi)
  4019c4:	c3                   	retq   

00000000004019c5 <setval_152>:
  4019c5:	c7 07 8d ca 38 db    	movl   $0xdb38ca8d,(%rdi)
  4019cb:	c3                   	retq   

00000000004019cc <getval_298>:
  4019cc:	b8 48 89 e0 c3       	mov    $0xc3e08948,%eax
  4019d1:	c3                   	retq   

00000000004019d2 <addval_124>:
  4019d2:	8d 87 89 c1 90 c7    	lea    -0x386f3e77(%rdi),%eax
  4019d8:	c3                   	retq   

00000000004019d9 <setval_370>:
  4019d9:	c7 07 89 c1 18 db    	movl   $0xdb18c189,(%rdi)
  4019df:	c3                   	retq   

00000000004019e0 <getval_435>:
  4019e0:	b8 89 c1 78 d2       	mov    $0xd278c189,%eax
  4019e5:	c3                   	retq   

00000000004019e6 <setval_394>:
  4019e6:	c7 07 89 d6 94 c3    	movl   $0xc394d689,(%rdi)
  4019ec:	c3                   	retq   

00000000004019ed <addval_392>:
  4019ed:	8d 87 4a 89 e0 c3    	lea    -0x3c1f76b6(%rdi),%eax
  4019f3:	c3                   	retq   

00000000004019f4 <end_farm>:
  4019f4:	b8 01 00 00 00       	mov    $0x1,%eax
  4019f9:	c3                   	retq   

00000000004019fa <save_char>:
  4019fa:	8b 05 24 47 20 00    	mov    0x204724(%rip),%eax        # 606124 <gets_cnt>
  401a00:	3d ff 03 00 00       	cmp    $0x3ff,%eax
  401a05:	7f 4a                	jg     401a51 <save_char+0x57>
  401a07:	8d 14 40             	lea    (%rax,%rax,2),%edx
  401a0a:	89 f9                	mov    %edi,%ecx
  401a0c:	c0 e9 04             	shr    $0x4,%cl
  401a0f:	4c 8d 05 0a 1a 00 00 	lea    0x1a0a(%rip),%r8        # 403420 <trans_char>
  401a16:	83 e1 0f             	and    $0xf,%ecx
  401a19:	45 0f b6 0c 08       	movzbl (%r8,%rcx,1),%r9d
  401a1e:	48 8d 0d fb 3a 20 00 	lea    0x203afb(%rip),%rcx        # 605520 <gets_buf>
  401a25:	48 63 f2             	movslq %edx,%rsi
  401a28:	44 88 0c 31          	mov    %r9b,(%rcx,%rsi,1)
  401a2c:	8d 72 01             	lea    0x1(%rdx),%esi
  401a2f:	83 e7 0f             	and    $0xf,%edi
  401a32:	41 0f b6 3c 38       	movzbl (%r8,%rdi,1),%edi
  401a37:	48 63 f6             	movslq %esi,%rsi
  401a3a:	40 88 3c 31          	mov    %dil,(%rcx,%rsi,1)
  401a3e:	83 c2 02             	add    $0x2,%edx
  401a41:	48 63 d2             	movslq %edx,%rdx
  401a44:	c6 04 11 20          	movb   $0x20,(%rcx,%rdx,1)
  401a48:	83 c0 01             	add    $0x1,%eax
  401a4b:	89 05 d3 46 20 00    	mov    %eax,0x2046d3(%rip)        # 606124 <gets_cnt>
  401a51:	f3 c3                	repz retq 

0000000000401a53 <save_term>:
  401a53:	8b 05 cb 46 20 00    	mov    0x2046cb(%rip),%eax        # 606124 <gets_cnt>
  401a59:	8d 04 40             	lea    (%rax,%rax,2),%eax
  401a5c:	48 98                	cltq   
  401a5e:	48 8d 15 bb 3a 20 00 	lea    0x203abb(%rip),%rdx        # 605520 <gets_buf>
  401a65:	c6 04 02 00          	movb   $0x0,(%rdx,%rax,1)
  401a69:	c3                   	retq   

0000000000401a6a <check_fail>:
  401a6a:	48 83 ec 08          	sub    $0x8,%rsp
  401a6e:	0f be 35 b3 46 20 00 	movsbl 0x2046b3(%rip),%esi        # 606128 <target_prefix>
  401a75:	48 8d 0d a4 3a 20 00 	lea    0x203aa4(%rip),%rcx        # 605520 <gets_buf>
  401a7c:	8b 15 76 3a 20 00    	mov    0x203a76(%rip),%edx        # 6054f8 <check_level>
  401a82:	48 8d 3d 9a 16 00 00 	lea    0x169a(%rip),%rdi        # 403123 <_IO_stdin_used+0x3b3>
  401a89:	b8 00 00 00 00       	mov    $0x0,%eax
  401a8e:	e8 cd f1 ff ff       	callq  400c60 <printf@plt>
  401a93:	bf 01 00 00 00       	mov    $0x1,%edi
  401a98:	e8 13 f3 ff ff       	callq  400db0 <exit@plt>

0000000000401a9d <Gets>:
  401a9d:	41 54                	push   %r12
  401a9f:	55                   	push   %rbp
  401aa0:	53                   	push   %rbx
  401aa1:	49 89 fc             	mov    %rdi,%r12
  401aa4:	c7 05 76 46 20 00 00 	movl   $0x0,0x204676(%rip)        # 606124 <gets_cnt>
  401aab:	00 00 00 
  401aae:	48 89 fb             	mov    %rdi,%rbx
  401ab1:	eb 11                	jmp    401ac4 <Gets+0x27>
  401ab3:	48 8d 6b 01          	lea    0x1(%rbx),%rbp
  401ab7:	88 03                	mov    %al,(%rbx)
  401ab9:	0f b6 f8             	movzbl %al,%edi
  401abc:	e8 39 ff ff ff       	callq  4019fa <save_char>
  401ac1:	48 89 eb             	mov    %rbp,%rbx
  401ac4:	48 8b 3d 25 3a 20 00 	mov    0x203a25(%rip),%rdi        # 6054f0 <infile>
  401acb:	e8 50 f2 ff ff       	callq  400d20 <_IO_getc@plt>
  401ad0:	83 f8 ff             	cmp    $0xffffffff,%eax
  401ad3:	74 05                	je     401ada <Gets+0x3d>
  401ad5:	83 f8 0a             	cmp    $0xa,%eax
  401ad8:	75 d9                	jne    401ab3 <Gets+0x16>
  401ada:	c6 03 00             	movb   $0x0,(%rbx)
  401add:	b8 00 00 00 00       	mov    $0x0,%eax
  401ae2:	e8 6c ff ff ff       	callq  401a53 <save_term>
  401ae7:	4c 89 e0             	mov    %r12,%rax
  401aea:	5b                   	pop    %rbx
  401aeb:	5d                   	pop    %rbp
  401aec:	41 5c                	pop    %r12
  401aee:	c3                   	retq   

0000000000401aef <notify_server>:
  401aef:	83 3d 12 3a 20 00 00 	cmpl   $0x0,0x203a12(%rip)        # 605508 <is_checker>
  401af6:	0f 85 de 00 00 00    	jne    401bda <notify_server+0xeb>
  401afc:	55                   	push   %rbp
  401afd:	53                   	push   %rbx
  401afe:	48 81 ec 08 40 00 00 	sub    $0x4008,%rsp
  401b05:	89 fb                	mov    %edi,%ebx
  401b07:	8b 05 17 46 20 00    	mov    0x204617(%rip),%eax        # 606124 <gets_cnt>
  401b0d:	83 c0 64             	add    $0x64,%eax
  401b10:	3d 00 20 00 00       	cmp    $0x2000,%eax
  401b15:	0f 8f c1 00 00 00    	jg     401bdc <notify_server+0xed>
  401b1b:	44 0f be 0d 05 46 20 	movsbl 0x204605(%rip),%r9d        # 606128 <target_prefix>
  401b22:	00 
  401b23:	83 3d 5e 39 20 00 00 	cmpl   $0x0,0x20395e(%rip)        # 605488 <notify>
  401b2a:	0f 84 c7 00 00 00    	je     401bf7 <notify_server+0x108>
  401b30:	44 8b 05 c9 39 20 00 	mov    0x2039c9(%rip),%r8d        # 605500 <authkey>
  401b37:	85 db                	test   %ebx,%ebx
  401b39:	0f 84 c3 00 00 00    	je     401c02 <notify_server+0x113>
  401b3f:	48 8d 2d f3 15 00 00 	lea    0x15f3(%rip),%rbp        # 403139 <_IO_stdin_used+0x3c9>
  401b46:	48 8d bc 24 00 20 00 	lea    0x2000(%rsp),%rdi
  401b4d:	00 
  401b4e:	48 8d 05 cb 39 20 00 	lea    0x2039cb(%rip),%rax        # 605520 <gets_buf>
  401b55:	50                   	push   %rax
  401b56:	56                   	push   %rsi
  401b57:	48 89 e9             	mov    %rbp,%rcx
  401b5a:	8b 15 d0 35 20 00    	mov    0x2035d0(%rip),%edx        # 605130 <target_id>
  401b60:	48 8d 35 dc 15 00 00 	lea    0x15dc(%rip),%rsi        # 403143 <_IO_stdin_used+0x3d3>
  401b67:	b8 00 00 00 00       	mov    $0x0,%eax
  401b6c:	e8 2f f2 ff ff       	callq  400da0 <sprintf@plt>
  401b71:	48 83 c4 10          	add    $0x10,%rsp
  401b75:	83 3d 0c 39 20 00 00 	cmpl   $0x0,0x20390c(%rip)        # 605488 <notify>
  401b7c:	0f 84 b8 00 00 00    	je     401c3a <notify_server+0x14b>
  401b82:	85 db                	test   %ebx,%ebx
  401b84:	0f 84 a2 00 00 00    	je     401c2c <notify_server+0x13d>
  401b8a:	48 8d 8c 24 00 20 00 	lea    0x2000(%rsp),%rcx
  401b91:	00 
  401b92:	49 89 e1             	mov    %rsp,%r9
  401b95:	41 b8 00 00 00 00    	mov    $0x0,%r8d
  401b9b:	48 8b 15 a6 35 20 00 	mov    0x2035a6(%rip),%rdx        # 605148 <lab>
  401ba2:	48 8b 35 a7 35 20 00 	mov    0x2035a7(%rip),%rsi        # 605150 <course>
  401ba9:	48 8b 3d 90 35 20 00 	mov    0x203590(%rip),%rdi        # 605140 <user_id>
  401bb0:	e8 6e 10 00 00       	callq  402c23 <driver_post>
  401bb5:	85 c0                	test   %eax,%eax
  401bb7:	78 55                	js     401c0e <notify_server+0x11f>
  401bb9:	48 8d 3d c8 16 00 00 	lea    0x16c8(%rip),%rdi        # 403288 <_IO_stdin_used+0x518>
  401bc0:	e8 6b f0 ff ff       	callq  400c30 <puts@plt>
  401bc5:	48 8d 3d 9f 15 00 00 	lea    0x159f(%rip),%rdi        # 40316b <_IO_stdin_used+0x3fb>
  401bcc:	e8 5f f0 ff ff       	callq  400c30 <puts@plt>
  401bd1:	48 81 c4 08 40 00 00 	add    $0x4008,%rsp
  401bd8:	5b                   	pop    %rbx
  401bd9:	5d                   	pop    %rbp
  401bda:	f3 c3                	repz retq 
  401bdc:	48 8d 3d 75 16 00 00 	lea    0x1675(%rip),%rdi        # 403258 <_IO_stdin_used+0x4e8>
  401be3:	b8 00 00 00 00       	mov    $0x0,%eax
  401be8:	e8 73 f0 ff ff       	callq  400c60 <printf@plt>
  401bed:	bf 01 00 00 00       	mov    $0x1,%edi
  401bf2:	e8 b9 f1 ff ff       	callq  400db0 <exit@plt>
  401bf7:	41 b8 ff ff ff ff    	mov    $0xffffffff,%r8d
  401bfd:	e9 35 ff ff ff       	jmpq   401b37 <notify_server+0x48>
  401c02:	48 8d 2d 35 15 00 00 	lea    0x1535(%rip),%rbp        # 40313e <_IO_stdin_used+0x3ce>
  401c09:	e9 38 ff ff ff       	jmpq   401b46 <notify_server+0x57>
  401c0e:	48 89 e6             	mov    %rsp,%rsi
  401c11:	48 8d 3d 47 15 00 00 	lea    0x1547(%rip),%rdi        # 40315f <_IO_stdin_used+0x3ef>
  401c18:	b8 00 00 00 00       	mov    $0x0,%eax
  401c1d:	e8 3e f0 ff ff       	callq  400c60 <printf@plt>
  401c22:	bf 01 00 00 00       	mov    $0x1,%edi
  401c27:	e8 84 f1 ff ff       	callq  400db0 <exit@plt>
  401c2c:	48 8d 3d 42 15 00 00 	lea    0x1542(%rip),%rdi        # 403175 <_IO_stdin_used+0x405>
  401c33:	e8 f8 ef ff ff       	callq  400c30 <puts@plt>
  401c38:	eb 97                	jmp    401bd1 <notify_server+0xe2>
  401c3a:	48 89 ee             	mov    %rbp,%rsi
  401c3d:	48 8d 3d 7c 16 00 00 	lea    0x167c(%rip),%rdi        # 4032c0 <_IO_stdin_used+0x550>
  401c44:	b8 00 00 00 00       	mov    $0x0,%eax
  401c49:	e8 12 f0 ff ff       	callq  400c60 <printf@plt>
  401c4e:	48 8b 35 eb 34 20 00 	mov    0x2034eb(%rip),%rsi        # 605140 <user_id>
  401c55:	48 8d 3d 20 15 00 00 	lea    0x1520(%rip),%rdi        # 40317c <_IO_stdin_used+0x40c>
  401c5c:	b8 00 00 00 00       	mov    $0x0,%eax
  401c61:	e8 fa ef ff ff       	callq  400c60 <printf@plt>
  401c66:	48 8b 35 e3 34 20 00 	mov    0x2034e3(%rip),%rsi        # 605150 <course>
  401c6d:	48 8d 3d 15 15 00 00 	lea    0x1515(%rip),%rdi        # 403189 <_IO_stdin_used+0x419>
  401c74:	b8 00 00 00 00       	mov    $0x0,%eax
  401c79:	e8 e2 ef ff ff       	callq  400c60 <printf@plt>
  401c7e:	48 8b 35 c3 34 20 00 	mov    0x2034c3(%rip),%rsi        # 605148 <lab>
  401c85:	48 8d 3d 09 15 00 00 	lea    0x1509(%rip),%rdi        # 403195 <_IO_stdin_used+0x425>
  401c8c:	b8 00 00 00 00       	mov    $0x0,%eax
  401c91:	e8 ca ef ff ff       	callq  400c60 <printf@plt>
  401c96:	48 8d b4 24 00 20 00 	lea    0x2000(%rsp),%rsi
  401c9d:	00 
  401c9e:	48 8d 3d f9 14 00 00 	lea    0x14f9(%rip),%rdi        # 40319e <_IO_stdin_used+0x42e>
  401ca5:	b8 00 00 00 00       	mov    $0x0,%eax
  401caa:	e8 b1 ef ff ff       	callq  400c60 <printf@plt>
  401caf:	e9 1d ff ff ff       	jmpq   401bd1 <notify_server+0xe2>

0000000000401cb4 <validate>:
  401cb4:	53                   	push   %rbx
  401cb5:	89 fb                	mov    %edi,%ebx
  401cb7:	83 3d 4a 38 20 00 00 	cmpl   $0x0,0x20384a(%rip)        # 605508 <is_checker>
  401cbe:	74 68                	je     401d28 <validate+0x74>
  401cc0:	39 3d 36 38 20 00    	cmp    %edi,0x203836(%rip)        # 6054fc <vlevel>
  401cc6:	75 2d                	jne    401cf5 <validate+0x41>
  401cc8:	8b 35 2a 38 20 00    	mov    0x20382a(%rip),%esi        # 6054f8 <check_level>
  401cce:	39 f7                	cmp    %esi,%edi
  401cd0:	75 39                	jne    401d0b <validate+0x57>
  401cd2:	0f be 35 4f 44 20 00 	movsbl 0x20444f(%rip),%esi        # 606128 <target_prefix>
  401cd9:	48 8d 0d 40 38 20 00 	lea    0x203840(%rip),%rcx        # 605520 <gets_buf>
  401ce0:	89 fa                	mov    %edi,%edx
  401ce2:	48 8d 3d df 14 00 00 	lea    0x14df(%rip),%rdi        # 4031c8 <_IO_stdin_used+0x458>
  401ce9:	b8 00 00 00 00       	mov    $0x0,%eax
  401cee:	e8 6d ef ff ff       	callq  400c60 <printf@plt>
  401cf3:	5b                   	pop    %rbx
  401cf4:	c3                   	retq   
  401cf5:	48 8d 3d ae 14 00 00 	lea    0x14ae(%rip),%rdi        # 4031aa <_IO_stdin_used+0x43a>
  401cfc:	e8 2f ef ff ff       	callq  400c30 <puts@plt>
  401d01:	b8 00 00 00 00       	mov    $0x0,%eax
  401d06:	e8 5f fd ff ff       	callq  401a6a <check_fail>
  401d0b:	89 fa                	mov    %edi,%edx
  401d0d:	48 8d 3d d4 15 00 00 	lea    0x15d4(%rip),%rdi        # 4032e8 <_IO_stdin_used+0x578>
  401d14:	b8 00 00 00 00       	mov    $0x0,%eax
  401d19:	e8 42 ef ff ff       	callq  400c60 <printf@plt>
  401d1e:	b8 00 00 00 00       	mov    $0x0,%eax
  401d23:	e8 42 fd ff ff       	callq  401a6a <check_fail>
  401d28:	3b 3d ce 37 20 00    	cmp    0x2037ce(%rip),%edi        # 6054fc <vlevel>
  401d2e:	74 1a                	je     401d4a <validate+0x96>
  401d30:	48 8d 3d 73 14 00 00 	lea    0x1473(%rip),%rdi        # 4031aa <_IO_stdin_used+0x43a>
  401d37:	e8 f4 ee ff ff       	callq  400c30 <puts@plt>
  401d3c:	89 de                	mov    %ebx,%esi
  401d3e:	bf 00 00 00 00       	mov    $0x0,%edi
  401d43:	e8 a7 fd ff ff       	callq  401aef <notify_server>
  401d48:	eb a9                	jmp    401cf3 <validate+0x3f>
  401d4a:	0f be 15 d7 43 20 00 	movsbl 0x2043d7(%rip),%edx        # 606128 <target_prefix>
  401d51:	89 fe                	mov    %edi,%esi
  401d53:	48 8d 3d b6 15 00 00 	lea    0x15b6(%rip),%rdi        # 403310 <_IO_stdin_used+0x5a0>
  401d5a:	b8 00 00 00 00       	mov    $0x0,%eax
  401d5f:	e8 fc ee ff ff       	callq  400c60 <printf@plt>
  401d64:	89 de                	mov    %ebx,%esi
  401d66:	bf 01 00 00 00       	mov    $0x1,%edi
  401d6b:	e8 7f fd ff ff       	callq  401aef <notify_server>
  401d70:	eb 81                	jmp    401cf3 <validate+0x3f>

0000000000401d72 <fail>:
  401d72:	48 83 ec 08          	sub    $0x8,%rsp
  401d76:	83 3d 8b 37 20 00 00 	cmpl   $0x0,0x20378b(%rip)        # 605508 <is_checker>
  401d7d:	75 11                	jne    401d90 <fail+0x1e>
  401d7f:	89 fe                	mov    %edi,%esi
  401d81:	bf 00 00 00 00       	mov    $0x0,%edi
  401d86:	e8 64 fd ff ff       	callq  401aef <notify_server>
  401d8b:	48 83 c4 08          	add    $0x8,%rsp
  401d8f:	c3                   	retq   
  401d90:	b8 00 00 00 00       	mov    $0x0,%eax
  401d95:	e8 d0 fc ff ff       	callq  401a6a <check_fail>

0000000000401d9a <bushandler>:
  401d9a:	48 83 ec 08          	sub    $0x8,%rsp
  401d9e:	83 3d 63 37 20 00 00 	cmpl   $0x0,0x203763(%rip)        # 605508 <is_checker>
  401da5:	74 16                	je     401dbd <bushandler+0x23>
  401da7:	48 8d 3d 2f 14 00 00 	lea    0x142f(%rip),%rdi        # 4031dd <_IO_stdin_used+0x46d>
  401dae:	e8 7d ee ff ff       	callq  400c30 <puts@plt>
  401db3:	b8 00 00 00 00       	mov    $0x0,%eax
  401db8:	e8 ad fc ff ff       	callq  401a6a <check_fail>
  401dbd:	48 8d 3d 84 15 00 00 	lea    0x1584(%rip),%rdi        # 403348 <_IO_stdin_used+0x5d8>
  401dc4:	e8 67 ee ff ff       	callq  400c30 <puts@plt>
  401dc9:	48 8d 3d 17 14 00 00 	lea    0x1417(%rip),%rdi        # 4031e7 <_IO_stdin_used+0x477>
  401dd0:	e8 5b ee ff ff       	callq  400c30 <puts@plt>
  401dd5:	be 00 00 00 00       	mov    $0x0,%esi
  401dda:	bf 00 00 00 00       	mov    $0x0,%edi
  401ddf:	e8 0b fd ff ff       	callq  401aef <notify_server>
  401de4:	bf 01 00 00 00       	mov    $0x1,%edi
  401de9:	e8 c2 ef ff ff       	callq  400db0 <exit@plt>

0000000000401dee <seghandler>:
  401dee:	48 83 ec 08          	sub    $0x8,%rsp
  401df2:	83 3d 0f 37 20 00 00 	cmpl   $0x0,0x20370f(%rip)        # 605508 <is_checker>
  401df9:	74 16                	je     401e11 <seghandler+0x23>
  401dfb:	48 8d 3d fb 13 00 00 	lea    0x13fb(%rip),%rdi        # 4031fd <_IO_stdin_used+0x48d>
  401e02:	e8 29 ee ff ff       	callq  400c30 <puts@plt>
  401e07:	b8 00 00 00 00       	mov    $0x0,%eax
  401e0c:	e8 59 fc ff ff       	callq  401a6a <check_fail>
  401e11:	48 8d 3d 50 15 00 00 	lea    0x1550(%rip),%rdi        # 403368 <_IO_stdin_used+0x5f8>
  401e18:	e8 13 ee ff ff       	callq  400c30 <puts@plt>
  401e1d:	48 8d 3d c3 13 00 00 	lea    0x13c3(%rip),%rdi        # 4031e7 <_IO_stdin_used+0x477>
  401e24:	e8 07 ee ff ff       	callq  400c30 <puts@plt>
  401e29:	be 00 00 00 00       	mov    $0x0,%esi
  401e2e:	bf 00 00 00 00       	mov    $0x0,%edi
  401e33:	e8 b7 fc ff ff       	callq  401aef <notify_server>
  401e38:	bf 01 00 00 00       	mov    $0x1,%edi
  401e3d:	e8 6e ef ff ff       	callq  400db0 <exit@plt>

0000000000401e42 <illegalhandler>:
  401e42:	48 83 ec 08          	sub    $0x8,%rsp
  401e46:	83 3d bb 36 20 00 00 	cmpl   $0x0,0x2036bb(%rip)        # 605508 <is_checker>
  401e4d:	74 16                	je     401e65 <illegalhandler+0x23>
  401e4f:	48 8d 3d ba 13 00 00 	lea    0x13ba(%rip),%rdi        # 403210 <_IO_stdin_used+0x4a0>
  401e56:	e8 d5 ed ff ff       	callq  400c30 <puts@plt>
  401e5b:	b8 00 00 00 00       	mov    $0x0,%eax
  401e60:	e8 05 fc ff ff       	callq  401a6a <check_fail>
  401e65:	48 8d 3d 24 15 00 00 	lea    0x1524(%rip),%rdi        # 403390 <_IO_stdin_used+0x620>
  401e6c:	e8 bf ed ff ff       	callq  400c30 <puts@plt>
  401e71:	48 8d 3d 6f 13 00 00 	lea    0x136f(%rip),%rdi        # 4031e7 <_IO_stdin_used+0x477>
  401e78:	e8 b3 ed ff ff       	callq  400c30 <puts@plt>
  401e7d:	be 00 00 00 00       	mov    $0x0,%esi
  401e82:	bf 00 00 00 00       	mov    $0x0,%edi
  401e87:	e8 63 fc ff ff       	callq  401aef <notify_server>
  401e8c:	bf 01 00 00 00       	mov    $0x1,%edi
  401e91:	e8 1a ef ff ff       	callq  400db0 <exit@plt>

0000000000401e96 <sigalrmhandler>:
  401e96:	48 83 ec 08          	sub    $0x8,%rsp
  401e9a:	83 3d 67 36 20 00 00 	cmpl   $0x0,0x203667(%rip)        # 605508 <is_checker>
  401ea1:	74 16                	je     401eb9 <sigalrmhandler+0x23>
  401ea3:	48 8d 3d 7a 13 00 00 	lea    0x137a(%rip),%rdi        # 403224 <_IO_stdin_used+0x4b4>
  401eaa:	e8 81 ed ff ff       	callq  400c30 <puts@plt>
  401eaf:	b8 00 00 00 00       	mov    $0x0,%eax
  401eb4:	e8 b1 fb ff ff       	callq  401a6a <check_fail>
  401eb9:	be 05 00 00 00       	mov    $0x5,%esi
  401ebe:	48 8d 3d fb 14 00 00 	lea    0x14fb(%rip),%rdi        # 4033c0 <_IO_stdin_used+0x650>
  401ec5:	b8 00 00 00 00       	mov    $0x0,%eax
  401eca:	e8 91 ed ff ff       	callq  400c60 <printf@plt>
  401ecf:	be 00 00 00 00       	mov    $0x0,%esi
  401ed4:	bf 00 00 00 00       	mov    $0x0,%edi
  401ed9:	e8 11 fc ff ff       	callq  401aef <notify_server>
  401ede:	bf 01 00 00 00       	mov    $0x1,%edi
  401ee3:	e8 c8 ee ff ff       	callq  400db0 <exit@plt>

0000000000401ee8 <launch>:
  401ee8:	55                   	push   %rbp
  401ee9:	48 89 e5             	mov    %rsp,%rbp
  401eec:	48 89 fa             	mov    %rdi,%rdx
  401eef:	48 8d 47 1e          	lea    0x1e(%rdi),%rax
  401ef3:	48 83 e0 f0          	and    $0xfffffffffffffff0,%rax
  401ef7:	48 29 c4             	sub    %rax,%rsp
  401efa:	48 8d 7c 24 0f       	lea    0xf(%rsp),%rdi
  401eff:	48 83 e7 f0          	and    $0xfffffffffffffff0,%rdi
  401f03:	be f4 00 00 00       	mov    $0xf4,%esi
  401f08:	e8 63 ed ff ff       	callq  400c70 <memset@plt>
  401f0d:	48 8b 05 8c 35 20 00 	mov    0x20358c(%rip),%rax        # 6054a0 <stdin@@GLIBC_2.2.5>
  401f14:	48 39 05 d5 35 20 00 	cmp    %rax,0x2035d5(%rip)        # 6054f0 <infile>
  401f1b:	74 2b                	je     401f48 <launch+0x60>
  401f1d:	c7 05 d5 35 20 00 00 	movl   $0x0,0x2035d5(%rip)        # 6054fc <vlevel>
  401f24:	00 00 00 
  401f27:	b8 00 00 00 00       	mov    $0x0,%eax
  401f2c:	e8 81 f9 ff ff       	callq  4018b2 <test>
  401f31:	83 3d d0 35 20 00 00 	cmpl   $0x0,0x2035d0(%rip)        # 605508 <is_checker>
  401f38:	75 21                	jne    401f5b <launch+0x73>
  401f3a:	48 8d 3d 03 13 00 00 	lea    0x1303(%rip),%rdi        # 403244 <_IO_stdin_used+0x4d4>
  401f41:	e8 ea ec ff ff       	callq  400c30 <puts@plt>
  401f46:	c9                   	leaveq 
  401f47:	c3                   	retq   
  401f48:	48 8d 3d dd 12 00 00 	lea    0x12dd(%rip),%rdi        # 40322c <_IO_stdin_used+0x4bc>
  401f4f:	b8 00 00 00 00       	mov    $0x0,%eax
  401f54:	e8 07 ed ff ff       	callq  400c60 <printf@plt>
  401f59:	eb c2                	jmp    401f1d <launch+0x35>
  401f5b:	48 8d 3d d7 12 00 00 	lea    0x12d7(%rip),%rdi        # 403239 <_IO_stdin_used+0x4c9>
  401f62:	e8 c9 ec ff ff       	callq  400c30 <puts@plt>
  401f67:	b8 00 00 00 00       	mov    $0x0,%eax
  401f6c:	e8 f9 fa ff ff       	callq  401a6a <check_fail>

0000000000401f71 <stable_launch>:
  401f71:	53                   	push   %rbx
  401f72:	48 89 3d 6f 35 20 00 	mov    %rdi,0x20356f(%rip)        # 6054e8 <global_offset>
  401f79:	41 b9 00 00 00 00    	mov    $0x0,%r9d
  401f7f:	41 b8 00 00 00 00    	mov    $0x0,%r8d
  401f85:	b9 32 01 00 00       	mov    $0x132,%ecx
  401f8a:	ba 07 00 00 00       	mov    $0x7,%edx
  401f8f:	be 00 00 10 00       	mov    $0x100000,%esi
  401f94:	bf 00 60 58 55       	mov    $0x55586000,%edi
  401f99:	e8 b2 ec ff ff       	callq  400c50 <mmap@plt>
  401f9e:	48 89 c3             	mov    %rax,%rbx
  401fa1:	48 3d 00 60 58 55    	cmp    $0x55586000,%rax
  401fa7:	75 43                	jne    401fec <stable_launch+0x7b>
  401fa9:	48 8d 90 f8 ff 0f 00 	lea    0xffff8(%rax),%rdx
  401fb0:	48 89 15 79 41 20 00 	mov    %rdx,0x204179(%rip)        # 606130 <stack_top>
  401fb7:	48 89 e0             	mov    %rsp,%rax
  401fba:	48 89 d4             	mov    %rdx,%rsp
  401fbd:	48 89 c2             	mov    %rax,%rdx
  401fc0:	48 89 15 19 35 20 00 	mov    %rdx,0x203519(%rip)        # 6054e0 <global_save_stack>
  401fc7:	48 8b 3d 1a 35 20 00 	mov    0x20351a(%rip),%rdi        # 6054e8 <global_offset>
  401fce:	e8 15 ff ff ff       	callq  401ee8 <launch>
  401fd3:	48 8b 05 06 35 20 00 	mov    0x203506(%rip),%rax        # 6054e0 <global_save_stack>
  401fda:	48 89 c4             	mov    %rax,%rsp
  401fdd:	be 00 00 10 00       	mov    $0x100000,%esi
  401fe2:	48 89 df             	mov    %rbx,%rdi
  401fe5:	e8 56 ed ff ff       	callq  400d40 <munmap@plt>
  401fea:	5b                   	pop    %rbx
  401feb:	c3                   	retq   
  401fec:	be 00 00 10 00       	mov    $0x100000,%esi
  401ff1:	48 89 c7             	mov    %rax,%rdi
  401ff4:	e8 47 ed ff ff       	callq  400d40 <munmap@plt>
  401ff9:	ba 00 60 58 55       	mov    $0x55586000,%edx
  401ffe:	48 8d 35 f3 13 00 00 	lea    0x13f3(%rip),%rsi        # 4033f8 <_IO_stdin_used+0x688>
  402005:	48 8b 3d b4 34 20 00 	mov    0x2034b4(%rip),%rdi        # 6054c0 <stderr@@GLIBC_2.2.5>
  40200c:	b8 00 00 00 00       	mov    $0x0,%eax
  402011:	e8 ba ec ff ff       	callq  400cd0 <fprintf@plt>
  402016:	bf 01 00 00 00       	mov    $0x1,%edi
  40201b:	e8 90 ed ff ff       	callq  400db0 <exit@plt>

0000000000402020 <rio_readinitb>:
  402020:	89 37                	mov    %esi,(%rdi)
  402022:	c7 47 04 00 00 00 00 	movl   $0x0,0x4(%rdi)
  402029:	48 8d 47 10          	lea    0x10(%rdi),%rax
  40202d:	48 89 47 08          	mov    %rax,0x8(%rdi)
  402031:	c3                   	retq   

0000000000402032 <sigalrm_handler>:
  402032:	48 83 ec 08          	sub    $0x8,%rsp
  402036:	ba 00 00 00 00       	mov    $0x0,%edx
  40203b:	48 8d 35 ee 13 00 00 	lea    0x13ee(%rip),%rsi        # 403430 <trans_char+0x10>
  402042:	48 8b 3d 77 34 20 00 	mov    0x203477(%rip),%rdi        # 6054c0 <stderr@@GLIBC_2.2.5>
  402049:	b8 00 00 00 00       	mov    $0x0,%eax
  40204e:	e8 7d ec ff ff       	callq  400cd0 <fprintf@plt>
  402053:	bf 01 00 00 00       	mov    $0x1,%edi
  402058:	e8 53 ed ff ff       	callq  400db0 <exit@plt>

000000000040205d <urlencode>:
  40205d:	41 54                	push   %r12
  40205f:	55                   	push   %rbp
  402060:	53                   	push   %rbx
  402061:	48 83 ec 10          	sub    $0x10,%rsp
  402065:	48 89 fb             	mov    %rdi,%rbx
  402068:	48 89 f5             	mov    %rsi,%rbp
  40206b:	b8 00 00 00 00       	mov    $0x0,%eax
  402070:	48 c7 c1 ff ff ff ff 	mov    $0xffffffffffffffff,%rcx
  402077:	f2 ae                	repnz scas %es:(%rdi),%al
  402079:	48 f7 d1             	not    %rcx
  40207c:	8d 41 ff             	lea    -0x1(%rcx),%eax
  40207f:	eb 0e                	jmp    40208f <urlencode+0x32>
  402081:	88 55 00             	mov    %dl,0x0(%rbp)
  402084:	48 8d 6d 01          	lea    0x1(%rbp),%rbp
  402088:	48 83 c3 01          	add    $0x1,%rbx
  40208c:	44 89 e0             	mov    %r12d,%eax
  40208f:	44 8d 60 ff          	lea    -0x1(%rax),%r12d
  402093:	85 c0                	test   %eax,%eax
  402095:	0f 84 95 00 00 00    	je     402130 <urlencode+0xd3>
  40209b:	0f b6 13             	movzbl (%rbx),%edx
  40209e:	80 fa 2a             	cmp    $0x2a,%dl
  4020a1:	0f 94 c1             	sete   %cl
  4020a4:	80 fa 2d             	cmp    $0x2d,%dl
  4020a7:	0f 94 c0             	sete   %al
  4020aa:	08 c1                	or     %al,%cl
  4020ac:	75 d3                	jne    402081 <urlencode+0x24>
  4020ae:	80 fa 2e             	cmp    $0x2e,%dl
  4020b1:	74 ce                	je     402081 <urlencode+0x24>
  4020b3:	80 fa 5f             	cmp    $0x5f,%dl
  4020b6:	74 c9                	je     402081 <urlencode+0x24>
  4020b8:	8d 42 d0             	lea    -0x30(%rdx),%eax
  4020bb:	3c 09                	cmp    $0x9,%al
  4020bd:	76 c2                	jbe    402081 <urlencode+0x24>
  4020bf:	8d 42 bf             	lea    -0x41(%rdx),%eax
  4020c2:	3c 19                	cmp    $0x19,%al
  4020c4:	76 bb                	jbe    402081 <urlencode+0x24>
  4020c6:	8d 42 9f             	lea    -0x61(%rdx),%eax
  4020c9:	3c 19                	cmp    $0x19,%al
  4020cb:	76 b4                	jbe    402081 <urlencode+0x24>
  4020cd:	80 fa 20             	cmp    $0x20,%dl
  4020d0:	74 4c                	je     40211e <urlencode+0xc1>
  4020d2:	8d 42 e0             	lea    -0x20(%rdx),%eax
  4020d5:	3c 5f                	cmp    $0x5f,%al
  4020d7:	0f 96 c1             	setbe  %cl
  4020da:	80 fa 09             	cmp    $0x9,%dl
  4020dd:	0f 94 c0             	sete   %al
  4020e0:	08 c1                	or     %al,%cl
  4020e2:	74 47                	je     40212b <urlencode+0xce>
  4020e4:	0f b6 d2             	movzbl %dl,%edx
  4020e7:	48 8d 7c 24 08       	lea    0x8(%rsp),%rdi
  4020ec:	48 8d 35 d5 13 00 00 	lea    0x13d5(%rip),%rsi        # 4034c8 <trans_char+0xa8>
  4020f3:	b8 00 00 00 00       	mov    $0x0,%eax
  4020f8:	e8 a3 ec ff ff       	callq  400da0 <sprintf@plt>
  4020fd:	0f b6 44 24 08       	movzbl 0x8(%rsp),%eax
  402102:	88 45 00             	mov    %al,0x0(%rbp)
  402105:	0f b6 44 24 09       	movzbl 0x9(%rsp),%eax
  40210a:	88 45 01             	mov    %al,0x1(%rbp)
  40210d:	0f b6 44 24 0a       	movzbl 0xa(%rsp),%eax
  402112:	88 45 02             	mov    %al,0x2(%rbp)
  402115:	48 8d 6d 03          	lea    0x3(%rbp),%rbp
  402119:	e9 6a ff ff ff       	jmpq   402088 <urlencode+0x2b>
  40211e:	c6 45 00 2b          	movb   $0x2b,0x0(%rbp)
  402122:	48 8d 6d 01          	lea    0x1(%rbp),%rbp
  402126:	e9 5d ff ff ff       	jmpq   402088 <urlencode+0x2b>
  40212b:	b8 ff ff ff ff       	mov    $0xffffffff,%eax
  402130:	48 83 c4 10          	add    $0x10,%rsp
  402134:	5b                   	pop    %rbx
  402135:	5d                   	pop    %rbp
  402136:	41 5c                	pop    %r12
  402138:	c3                   	retq   

0000000000402139 <rio_writen>:
  402139:	41 55                	push   %r13
  40213b:	41 54                	push   %r12
  40213d:	55                   	push   %rbp
  40213e:	53                   	push   %rbx
  40213f:	48 83 ec 08          	sub    $0x8,%rsp
  402143:	41 89 fc             	mov    %edi,%r12d
  402146:	49 89 d5             	mov    %rdx,%r13
  402149:	48 89 f5             	mov    %rsi,%rbp
  40214c:	48 89 d3             	mov    %rdx,%rbx
  40214f:	eb 06                	jmp    402157 <rio_writen+0x1e>
  402151:	48 29 c3             	sub    %rax,%rbx
  402154:	48 01 c5             	add    %rax,%rbp
  402157:	48 85 db             	test   %rbx,%rbx
  40215a:	74 24                	je     402180 <rio_writen+0x47>
  40215c:	48 89 da             	mov    %rbx,%rdx
  40215f:	48 89 ee             	mov    %rbp,%rsi
  402162:	44 89 e7             	mov    %r12d,%edi
  402165:	e8 d6 ea ff ff       	callq  400c40 <write@plt>
  40216a:	48 85 c0             	test   %rax,%rax
  40216d:	7f e2                	jg     402151 <rio_writen+0x18>
  40216f:	e8 7c ea ff ff       	callq  400bf0 <__errno_location@plt>
  402174:	83 38 04             	cmpl   $0x4,(%rax)
  402177:	75 15                	jne    40218e <rio_writen+0x55>
  402179:	b8 00 00 00 00       	mov    $0x0,%eax
  40217e:	eb d1                	jmp    402151 <rio_writen+0x18>
  402180:	4c 89 e8             	mov    %r13,%rax
  402183:	48 83 c4 08          	add    $0x8,%rsp
  402187:	5b                   	pop    %rbx
  402188:	5d                   	pop    %rbp
  402189:	41 5c                	pop    %r12
  40218b:	41 5d                	pop    %r13
  40218d:	c3                   	retq   
  40218e:	48 c7 c0 ff ff ff ff 	mov    $0xffffffffffffffff,%rax
  402195:	eb ec                	jmp    402183 <rio_writen+0x4a>

0000000000402197 <rio_read>:
  402197:	41 55                	push   %r13
  402199:	41 54                	push   %r12
  40219b:	55                   	push   %rbp
  40219c:	53                   	push   %rbx
  40219d:	48 83 ec 08          	sub    $0x8,%rsp
  4021a1:	48 89 fb             	mov    %rdi,%rbx
  4021a4:	49 89 f5             	mov    %rsi,%r13
  4021a7:	49 89 d4             	mov    %rdx,%r12
  4021aa:	eb 0a                	jmp    4021b6 <rio_read+0x1f>
  4021ac:	e8 3f ea ff ff       	callq  400bf0 <__errno_location@plt>
  4021b1:	83 38 04             	cmpl   $0x4,(%rax)
  4021b4:	75 5c                	jne    402212 <rio_read+0x7b>
  4021b6:	8b 6b 04             	mov    0x4(%rbx),%ebp
  4021b9:	85 ed                	test   %ebp,%ebp
  4021bb:	7f 24                	jg     4021e1 <rio_read+0x4a>
  4021bd:	48 8d 6b 10          	lea    0x10(%rbx),%rbp
  4021c1:	ba 00 20 00 00       	mov    $0x2000,%edx
  4021c6:	48 89 ee             	mov    %rbp,%rsi
  4021c9:	8b 3b                	mov    (%rbx),%edi
  4021cb:	e8 d0 ea ff ff       	callq  400ca0 <read@plt>
  4021d0:	89 43 04             	mov    %eax,0x4(%rbx)
  4021d3:	85 c0                	test   %eax,%eax
  4021d5:	78 d5                	js     4021ac <rio_read+0x15>
  4021d7:	85 c0                	test   %eax,%eax
  4021d9:	74 40                	je     40221b <rio_read+0x84>
  4021db:	48 89 6b 08          	mov    %rbp,0x8(%rbx)
  4021df:	eb d5                	jmp    4021b6 <rio_read+0x1f>
  4021e1:	89 e8                	mov    %ebp,%eax
  4021e3:	49 39 c4             	cmp    %rax,%r12
  4021e6:	77 03                	ja     4021eb <rio_read+0x54>
  4021e8:	44 89 e5             	mov    %r12d,%ebp
  4021eb:	4c 63 e5             	movslq %ebp,%r12
  4021ee:	48 8b 73 08          	mov    0x8(%rbx),%rsi
  4021f2:	4c 89 e2             	mov    %r12,%rdx
  4021f5:	4c 89 ef             	mov    %r13,%rdi
  4021f8:	e8 f3 ea ff ff       	callq  400cf0 <memcpy@plt>
  4021fd:	4c 01 63 08          	add    %r12,0x8(%rbx)
  402201:	29 6b 04             	sub    %ebp,0x4(%rbx)
  402204:	4c 89 e0             	mov    %r12,%rax
  402207:	48 83 c4 08          	add    $0x8,%rsp
  40220b:	5b                   	pop    %rbx
  40220c:	5d                   	pop    %rbp
  40220d:	41 5c                	pop    %r12
  40220f:	41 5d                	pop    %r13
  402211:	c3                   	retq   
  402212:	48 c7 c0 ff ff ff ff 	mov    $0xffffffffffffffff,%rax
  402219:	eb ec                	jmp    402207 <rio_read+0x70>
  40221b:	b8 00 00 00 00       	mov    $0x0,%eax
  402220:	eb e5                	jmp    402207 <rio_read+0x70>

0000000000402222 <rio_readlineb>:
  402222:	41 55                	push   %r13
  402224:	41 54                	push   %r12
  402226:	55                   	push   %rbp
  402227:	53                   	push   %rbx
  402228:	48 83 ec 18          	sub    $0x18,%rsp
  40222c:	49 89 fd             	mov    %rdi,%r13
  40222f:	49 89 d4             	mov    %rdx,%r12
  402232:	48 89 f5             	mov    %rsi,%rbp
  402235:	bb 01 00 00 00       	mov    $0x1,%ebx
  40223a:	4c 39 e3             	cmp    %r12,%rbx
  40223d:	73 47                	jae    402286 <rio_readlineb+0x64>
  40223f:	48 8d 74 24 0f       	lea    0xf(%rsp),%rsi
  402244:	ba 01 00 00 00       	mov    $0x1,%edx
  402249:	4c 89 ef             	mov    %r13,%rdi
  40224c:	e8 46 ff ff ff       	callq  402197 <rio_read>
  402251:	83 f8 01             	cmp    $0x1,%eax
  402254:	75 1c                	jne    402272 <rio_readlineb+0x50>
  402256:	48 8d 45 01          	lea    0x1(%rbp),%rax
  40225a:	0f b6 54 24 0f       	movzbl 0xf(%rsp),%edx
  40225f:	88 55 00             	mov    %dl,0x0(%rbp)
  402262:	80 7c 24 0f 0a       	cmpb   $0xa,0xf(%rsp)
  402267:	74 1a                	je     402283 <rio_readlineb+0x61>
  402269:	48 83 c3 01          	add    $0x1,%rbx
  40226d:	48 89 c5             	mov    %rax,%rbp
  402270:	eb c8                	jmp    40223a <rio_readlineb+0x18>
  402272:	85 c0                	test   %eax,%eax
  402274:	75 22                	jne    402298 <rio_readlineb+0x76>
  402276:	48 83 fb 01          	cmp    $0x1,%rbx
  40227a:	75 0a                	jne    402286 <rio_readlineb+0x64>
  40227c:	b8 00 00 00 00       	mov    $0x0,%eax
  402281:	eb 0a                	jmp    40228d <rio_readlineb+0x6b>
  402283:	48 89 c5             	mov    %rax,%rbp
  402286:	c6 45 00 00          	movb   $0x0,0x0(%rbp)
  40228a:	48 89 d8             	mov    %rbx,%rax
  40228d:	48 83 c4 18          	add    $0x18,%rsp
  402291:	5b                   	pop    %rbx
  402292:	5d                   	pop    %rbp
  402293:	41 5c                	pop    %r12
  402295:	41 5d                	pop    %r13
  402297:	c3                   	retq   
  402298:	48 c7 c0 ff ff ff ff 	mov    $0xffffffffffffffff,%rax
  40229f:	eb ec                	jmp    40228d <rio_readlineb+0x6b>

00000000004022a1 <submitr>:
  4022a1:	41 57                	push   %r15
  4022a3:	41 56                	push   %r14
  4022a5:	41 55                	push   %r13
  4022a7:	41 54                	push   %r12
  4022a9:	55                   	push   %rbp
  4022aa:	53                   	push   %rbx
  4022ab:	48 81 ec 58 a0 00 00 	sub    $0xa058,%rsp
  4022b2:	49 89 fd             	mov    %rdi,%r13
  4022b5:	89 74 24 14          	mov    %esi,0x14(%rsp)
  4022b9:	49 89 d7             	mov    %rdx,%r15
  4022bc:	48 89 4c 24 08       	mov    %rcx,0x8(%rsp)
  4022c1:	4c 89 44 24 18       	mov    %r8,0x18(%rsp)
  4022c6:	4d 89 ce             	mov    %r9,%r14
  4022c9:	48 8b 9c 24 90 a0 00 	mov    0xa090(%rsp),%rbx
  4022d0:	00 
  4022d1:	c7 84 24 2c 20 00 00 	movl   $0x0,0x202c(%rsp)
  4022d8:	00 00 00 00 
  4022dc:	ba 00 00 00 00       	mov    $0x0,%edx
  4022e1:	be 01 00 00 00       	mov    $0x1,%esi
  4022e6:	bf 02 00 00 00       	mov    $0x2,%edi
  4022eb:	e8 e0 ea ff ff       	callq  400dd0 <socket@plt>
  4022f0:	85 c0                	test   %eax,%eax
  4022f2:	0f 88 ca 01 00 00    	js     4024c2 <submitr+0x221>
  4022f8:	89 c5                	mov    %eax,%ebp
  4022fa:	4c 89 ef             	mov    %r13,%rdi
  4022fd:	e8 be e9 ff ff       	callq  400cc0 <gethostbyname@plt>
  402302:	48 85 c0             	test   %rax,%rax
  402305:	0f 84 05 02 00 00    	je     402510 <submitr+0x26f>
  40230b:	4c 8d a4 24 40 a0 00 	lea    0xa040(%rsp),%r12
  402312:	00 
  402313:	48 c7 84 24 40 a0 00 	movq   $0x0,0xa040(%rsp)
  40231a:	00 00 00 00 00 
  40231f:	48 c7 84 24 48 a0 00 	movq   $0x0,0xa048(%rsp)
  402326:	00 00 00 00 00 
  40232b:	66 c7 84 24 40 a0 00 	movw   $0x2,0xa040(%rsp)
  402332:	00 02 00 
  402335:	48 8b 48 18          	mov    0x18(%rax),%rcx
  402339:	48 63 50 14          	movslq 0x14(%rax),%rdx
  40233d:	48 8d b4 24 44 a0 00 	lea    0xa044(%rsp),%rsi
  402344:	00 
  402345:	48 8b 39             	mov    (%rcx),%rdi
  402348:	e8 03 ea ff ff       	callq  400d50 <bcopy@plt>
  40234d:	0f b7 44 24 14       	movzwl 0x14(%rsp),%eax
  402352:	66 c1 c8 08          	ror    $0x8,%ax
  402356:	66 89 84 24 42 a0 00 	mov    %ax,0xa042(%rsp)
  40235d:	00 
  40235e:	ba 10 00 00 00       	mov    $0x10,%edx
  402363:	4c 89 e6             	mov    %r12,%rsi
  402366:	89 ef                	mov    %ebp,%edi
  402368:	e8 53 ea ff ff       	callq  400dc0 <connect@plt>
  40236d:	85 c0                	test   %eax,%eax
  40236f:	0f 88 02 02 00 00    	js     402577 <submitr+0x2d6>
  402375:	48 c7 c6 ff ff ff ff 	mov    $0xffffffffffffffff,%rsi
  40237c:	b8 00 00 00 00       	mov    $0x0,%eax
  402381:	48 89 f1             	mov    %rsi,%rcx
  402384:	4c 89 f7             	mov    %r14,%rdi
  402387:	f2 ae                	repnz scas %es:(%rdi),%al
  402389:	48 f7 d1             	not    %rcx
  40238c:	48 89 ca             	mov    %rcx,%rdx
  40238f:	48 89 f1             	mov    %rsi,%rcx
  402392:	4c 89 ff             	mov    %r15,%rdi
  402395:	f2 ae                	repnz scas %es:(%rdi),%al
  402397:	48 f7 d1             	not    %rcx
  40239a:	49 89 c8             	mov    %rcx,%r8
  40239d:	48 89 f1             	mov    %rsi,%rcx
  4023a0:	48 8b 7c 24 08       	mov    0x8(%rsp),%rdi
  4023a5:	f2 ae                	repnz scas %es:(%rdi),%al
  4023a7:	48 f7 d1             	not    %rcx
  4023aa:	4d 8d 44 08 fe       	lea    -0x2(%r8,%rcx,1),%r8
  4023af:	48 89 f1             	mov    %rsi,%rcx
  4023b2:	48 8b 7c 24 18       	mov    0x18(%rsp),%rdi
  4023b7:	f2 ae                	repnz scas %es:(%rdi),%al
  4023b9:	48 89 c8             	mov    %rcx,%rax
  4023bc:	48 f7 d0             	not    %rax
  4023bf:	49 8d 4c 00 ff       	lea    -0x1(%r8,%rax,1),%rcx
  4023c4:	48 8d 44 52 fd       	lea    -0x3(%rdx,%rdx,2),%rax
  4023c9:	48 8d 84 01 80 00 00 	lea    0x80(%rcx,%rax,1),%rax
  4023d0:	00 
  4023d1:	48 3d 00 20 00 00    	cmp    $0x2000,%rax
  4023d7:	0f 87 f3 01 00 00    	ja     4025d0 <submitr+0x32f>
  4023dd:	48 8d b4 24 30 40 00 	lea    0x4030(%rsp),%rsi
  4023e4:	00 
  4023e5:	b9 00 04 00 00       	mov    $0x400,%ecx
  4023ea:	b8 00 00 00 00       	mov    $0x0,%eax
  4023ef:	48 89 f7             	mov    %rsi,%rdi
  4023f2:	f3 48 ab             	rep stos %rax,%es:(%rdi)
  4023f5:	4c 89 f7             	mov    %r14,%rdi
  4023f8:	e8 60 fc ff ff       	callq  40205d <urlencode>
  4023fd:	85 c0                	test   %eax,%eax
  4023ff:	0f 88 3d 02 00 00    	js     402642 <submitr+0x3a1>
  402405:	4c 8d a4 24 30 60 00 	lea    0x6030(%rsp),%r12
  40240c:	00 
  40240d:	4d 89 e9             	mov    %r13,%r9
  402410:	4c 8d 84 24 30 40 00 	lea    0x4030(%rsp),%r8
  402417:	00 
  402418:	4c 89 f9             	mov    %r15,%rcx
  40241b:	48 8b 54 24 08       	mov    0x8(%rsp),%rdx
  402420:	48 8d 35 31 10 00 00 	lea    0x1031(%rip),%rsi        # 403458 <trans_char+0x38>
  402427:	4c 89 e7             	mov    %r12,%rdi
  40242a:	b8 00 00 00 00       	mov    $0x0,%eax
  40242f:	e8 6c e9 ff ff       	callq  400da0 <sprintf@plt>
  402434:	b8 00 00 00 00       	mov    $0x0,%eax
  402439:	48 c7 c1 ff ff ff ff 	mov    $0xffffffffffffffff,%rcx
  402440:	4c 89 e7             	mov    %r12,%rdi
  402443:	f2 ae                	repnz scas %es:(%rdi),%al
  402445:	48 f7 d1             	not    %rcx
  402448:	48 8d 51 ff          	lea    -0x1(%rcx),%rdx
  40244c:	4c 89 e6             	mov    %r12,%rsi
  40244f:	89 ef                	mov    %ebp,%edi
  402451:	e8 e3 fc ff ff       	callq  402139 <rio_writen>
  402456:	48 85 c0             	test   %rax,%rax
  402459:	0f 88 6d 02 00 00    	js     4026cc <submitr+0x42b>
  40245f:	4c 8d a4 24 30 80 00 	lea    0x8030(%rsp),%r12
  402466:	00 
  402467:	89 ee                	mov    %ebp,%esi
  402469:	4c 89 e7             	mov    %r12,%rdi
  40246c:	e8 af fb ff ff       	callq  402020 <rio_readinitb>
  402471:	48 8d b4 24 30 60 00 	lea    0x6030(%rsp),%rsi
  402478:	00 
  402479:	ba 00 20 00 00       	mov    $0x2000,%edx
  40247e:	4c 89 e7             	mov    %r12,%rdi
  402481:	e8 9c fd ff ff       	callq  402222 <rio_readlineb>
  402486:	48 85 c0             	test   %rax,%rax
  402489:	0f 8e ab 02 00 00    	jle    40273a <submitr+0x499>
  40248f:	48 8d 8c 24 2c 20 00 	lea    0x202c(%rsp),%rcx
  402496:	00 
  402497:	48 8d 94 24 30 20 00 	lea    0x2030(%rsp),%rdx
  40249e:	00 
  40249f:	48 8d bc 24 30 60 00 	lea    0x6030(%rsp),%rdi
  4024a6:	00 
  4024a7:	4c 8d 44 24 20       	lea    0x20(%rsp),%r8
  4024ac:	48 8d 35 1c 10 00 00 	lea    0x101c(%rip),%rsi        # 4034cf <trans_char+0xaf>
  4024b3:	b8 00 00 00 00       	mov    $0x0,%eax
  4024b8:	e8 73 e8 ff ff       	callq  400d30 <__isoc99_sscanf@plt>
  4024bd:	e9 9f 03 00 00       	jmpq   402861 <submitr+0x5c0>
  4024c2:	48 b8 45 72 72 6f 72 	movabs $0x43203a726f727245,%rax
  4024c9:	3a 20 43 
  4024cc:	48 89 03             	mov    %rax,(%rbx)
  4024cf:	48 b8 6c 69 65 6e 74 	movabs $0x6e7520746e65696c,%rax
  4024d6:	20 75 6e 
  4024d9:	48 89 43 08          	mov    %rax,0x8(%rbx)
  4024dd:	48 b8 61 62 6c 65 20 	movabs $0x206f7420656c6261,%rax
  4024e4:	74 6f 20 
  4024e7:	48 89 43 10          	mov    %rax,0x10(%rbx)
  4024eb:	48 b8 63 72 65 61 74 	movabs $0x7320657461657263,%rax
  4024f2:	65 20 73 
  4024f5:	48 89 43 18          	mov    %rax,0x18(%rbx)
  4024f9:	c7 43 20 6f 63 6b 65 	movl   $0x656b636f,0x20(%rbx)
  402500:	66 c7 43 24 74 00    	movw   $0x74,0x24(%rbx)
  402506:	b8 ff ff ff ff       	mov    $0xffffffff,%eax
  40250b:	e9 18 03 00 00       	jmpq   402828 <submitr+0x587>
  402510:	48 b8 45 72 72 6f 72 	movabs $0x44203a726f727245,%rax
  402517:	3a 20 44 
  40251a:	48 89 03             	mov    %rax,(%rbx)
  40251d:	48 b8 4e 53 20 69 73 	movabs $0x6e7520736920534e,%rax
  402524:	20 75 6e 
  402527:	48 89 43 08          	mov    %rax,0x8(%rbx)
  40252b:	48 b8 61 62 6c 65 20 	movabs $0x206f7420656c6261,%rax
  402532:	74 6f 20 
  402535:	48 89 43 10          	mov    %rax,0x10(%rbx)
  402539:	48 b8 72 65 73 6f 6c 	movabs $0x2065766c6f736572,%rax
  402540:	76 65 20 
  402543:	48 89 43 18          	mov    %rax,0x18(%rbx)
  402547:	48 b8 73 65 72 76 65 	movabs $0x6120726576726573,%rax
  40254e:	72 20 61 
  402551:	48 89 43 20          	mov    %rax,0x20(%rbx)
  402555:	c7 43 28 64 64 72 65 	movl   $0x65726464,0x28(%rbx)
  40255c:	66 c7 43 2c 73 73    	movw   $0x7373,0x2c(%rbx)
  402562:	c6 43 2e 00          	movb   $0x0,0x2e(%rbx)
  402566:	89 ef                	mov    %ebp,%edi
  402568:	e8 23 e7 ff ff       	callq  400c90 <close@plt>
  40256d:	b8 ff ff ff ff       	mov    $0xffffffff,%eax
  402572:	e9 b1 02 00 00       	jmpq   402828 <submitr+0x587>
  402577:	48 b8 45 72 72 6f 72 	movabs $0x55203a726f727245,%rax
  40257e:	3a 20 55 
  402581:	48 89 03             	mov    %rax,(%rbx)
  402584:	48 b8 6e 61 62 6c 65 	movabs $0x6f7420656c62616e,%rax
  40258b:	20 74 6f 
  40258e:	48 89 43 08          	mov    %rax,0x8(%rbx)
  402592:	48 b8 20 63 6f 6e 6e 	movabs $0x7463656e6e6f6320,%rax
  402599:	65 63 74 
  40259c:	48 89 43 10          	mov    %rax,0x10(%rbx)
  4025a0:	48 b8 20 74 6f 20 74 	movabs $0x20656874206f7420,%rax
  4025a7:	68 65 20 
  4025aa:	48 89 43 18          	mov    %rax,0x18(%rbx)
  4025ae:	c7 43 20 73 65 72 76 	movl   $0x76726573,0x20(%rbx)
  4025b5:	66 c7 43 24 65 72    	movw   $0x7265,0x24(%rbx)
  4025bb:	c6 43 26 00          	movb   $0x0,0x26(%rbx)
  4025bf:	89 ef                	mov    %ebp,%edi
  4025c1:	e8 ca e6 ff ff       	callq  400c90 <close@plt>
  4025c6:	b8 ff ff ff ff       	mov    $0xffffffff,%eax
  4025cb:	e9 58 02 00 00       	jmpq   402828 <submitr+0x587>
  4025d0:	48 b8 45 72 72 6f 72 	movabs $0x52203a726f727245,%rax
  4025d7:	3a 20 52 
  4025da:	48 89 03             	mov    %rax,(%rbx)
  4025dd:	48 b8 65 73 75 6c 74 	movabs $0x747320746c757365,%rax
  4025e4:	20 73 74 
  4025e7:	48 89 43 08          	mov    %rax,0x8(%rbx)
  4025eb:	48 b8 72 69 6e 67 20 	movabs $0x6f6f7420676e6972,%rax
  4025f2:	74 6f 6f 
  4025f5:	48 89 43 10          	mov    %rax,0x10(%rbx)
  4025f9:	48 b8 20 6c 61 72 67 	movabs $0x202e656772616c20,%rax
  402600:	65 2e 20 
  402603:	48 89 43 18          	mov    %rax,0x18(%rbx)
  402607:	48 b8 49 6e 63 72 65 	movabs $0x6573616572636e49,%rax
  40260e:	61 73 65 
  402611:	48 89 43 20          	mov    %rax,0x20(%rbx)
  402615:	48 b8 20 53 55 42 4d 	movabs $0x5254494d42555320,%rax
  40261c:	49 54 52 
  40261f:	48 89 43 28          	mov    %rax,0x28(%rbx)
  402623:	48 b8 5f 4d 41 58 42 	movabs $0x46554258414d5f,%rax
  40262a:	55 46 00 
  40262d:	48 89 43 30          	mov    %rax,0x30(%rbx)
  402631:	89 ef                	mov    %ebp,%edi
  402633:	e8 58 e6 ff ff       	callq  400c90 <close@plt>
  402638:	b8 ff ff ff ff       	mov    $0xffffffff,%eax
  40263d:	e9 e6 01 00 00       	jmpq   402828 <submitr+0x587>
  402642:	48 b8 45 72 72 6f 72 	movabs $0x52203a726f727245,%rax
  402649:	3a 20 52 
  40264c:	48 89 03             	mov    %rax,(%rbx)
  40264f:	48 b8 65 73 75 6c 74 	movabs $0x747320746c757365,%rax
  402656:	20 73 74 
  402659:	48 89 43 08          	mov    %rax,0x8(%rbx)
  40265d:	48 b8 72 69 6e 67 20 	movabs $0x6e6f6320676e6972,%rax
  402664:	63 6f 6e 
  402667:	48 89 43 10          	mov    %rax,0x10(%rbx)
  40266b:	48 b8 74 61 69 6e 73 	movabs $0x6e6120736e696174,%rax
  402672:	20 61 6e 
  402675:	48 89 43 18          	mov    %rax,0x18(%rbx)
  402679:	48 b8 20 69 6c 6c 65 	movabs $0x6c6167656c6c6920,%rax
  402680:	67 61 6c 
  402683:	48 89 43 20          	mov    %rax,0x20(%rbx)
  402687:	48 b8 20 6f 72 20 75 	movabs $0x72706e7520726f20,%rax
  40268e:	6e 70 72 
  402691:	48 89 43 28          	mov    %rax,0x28(%rbx)
  402695:	48 b8 69 6e 74 61 62 	movabs $0x20656c6261746e69,%rax
  40269c:	6c 65 20 
  40269f:	48 89 43 30          	mov    %rax,0x30(%rbx)
  4026a3:	48 b8 63 68 61 72 61 	movabs $0x6574636172616863,%rax
  4026aa:	63 74 65 
  4026ad:	48 89 43 38          	mov    %rax,0x38(%rbx)
  4026b1:	66 c7 43 40 72 2e    	movw   $0x2e72,0x40(%rbx)
  4026b7:	c6 43 42 00          	movb   $0x0,0x42(%rbx)
  4026bb:	89 ef                	mov    %ebp,%edi
  4026bd:	e8 ce e5 ff ff       	callq  400c90 <close@plt>
  4026c2:	b8 ff ff ff ff       	mov    $0xffffffff,%eax
  4026c7:	e9 5c 01 00 00       	jmpq   402828 <submitr+0x587>
  4026cc:	48 b8 45 72 72 6f 72 	movabs $0x43203a726f727245,%rax
  4026d3:	3a 20 43 
  4026d6:	48 89 03             	mov    %rax,(%rbx)
  4026d9:	48 b8 6c 69 65 6e 74 	movabs $0x6e7520746e65696c,%rax
  4026e0:	20 75 6e 
  4026e3:	48 89 43 08          	mov    %rax,0x8(%rbx)
  4026e7:	48 b8 61 62 6c 65 20 	movabs $0x206f7420656c6261,%rax
  4026ee:	74 6f 20 
  4026f1:	48 89 43 10          	mov    %rax,0x10(%rbx)
  4026f5:	48 b8 77 72 69 74 65 	movabs $0x6f74206574697277,%rax
  4026fc:	20 74 6f 
  4026ff:	48 89 43 18          	mov    %rax,0x18(%rbx)
  402703:	48 b8 20 74 68 65 20 	movabs $0x7365722065687420,%rax
  40270a:	72 65 73 
  40270d:	48 89 43 20          	mov    %rax,0x20(%rbx)
  402711:	48 b8 75 6c 74 20 73 	movabs $0x7672657320746c75,%rax
  402718:	65 72 76 
  40271b:	48 89 43 28          	mov    %rax,0x28(%rbx)
  40271f:	66 c7 43 30 65 72    	movw   $0x7265,0x30(%rbx)
  402725:	c6 43 32 00          	movb   $0x0,0x32(%rbx)
  402729:	89 ef                	mov    %ebp,%edi
  40272b:	e8 60 e5 ff ff       	callq  400c90 <close@plt>
  402730:	b8 ff ff ff ff       	mov    $0xffffffff,%eax
  402735:	e9 ee 00 00 00       	jmpq   402828 <submitr+0x587>
  40273a:	48 b8 45 72 72 6f 72 	movabs $0x43203a726f727245,%rax
  402741:	3a 20 43 
  402744:	48 89 03             	mov    %rax,(%rbx)
  402747:	48 b8 6c 69 65 6e 74 	movabs $0x6e7520746e65696c,%rax
  40274e:	20 75 6e 
  402751:	48 89 43 08          	mov    %rax,0x8(%rbx)
  402755:	48 b8 61 62 6c 65 20 	movabs $0x206f7420656c6261,%rax
  40275c:	74 6f 20 
  40275f:	48 89 43 10          	mov    %rax,0x10(%rbx)
  402763:	48 b8 72 65 61 64 20 	movabs $0x7269662064616572,%rax
  40276a:	66 69 72 
  40276d:	48 89 43 18          	mov    %rax,0x18(%rbx)
  402771:	48 b8 73 74 20 68 65 	movabs $0x6564616568207473,%rax
  402778:	61 64 65 
  40277b:	48 89 43 20          	mov    %rax,0x20(%rbx)
  40277f:	48 b8 72 20 66 72 6f 	movabs $0x72206d6f72662072,%rax
  402786:	6d 20 72 
  402789:	48 89 43 28          	mov    %rax,0x28(%rbx)
  40278d:	48 b8 65 73 75 6c 74 	movabs $0x657320746c757365,%rax
  402794:	20 73 65 
  402797:	48 89 43 30          	mov    %rax,0x30(%rbx)
  40279b:	c7 43 38 72 76 65 72 	movl   $0x72657672,0x38(%rbx)
  4027a2:	c6 43 3c 00          	movb   $0x0,0x3c(%rbx)
  4027a6:	89 ef                	mov    %ebp,%edi
  4027a8:	e8 e3 e4 ff ff       	callq  400c90 <close@plt>
  4027ad:	b8 ff ff ff ff       	mov    $0xffffffff,%eax
  4027b2:	eb 74                	jmp    402828 <submitr+0x587>
  4027b4:	48 b8 45 72 72 6f 72 	movabs $0x43203a726f727245,%rax
  4027bb:	3a 20 43 
  4027be:	48 89 03             	mov    %rax,(%rbx)
  4027c1:	48 b8 6c 69 65 6e 74 	movabs $0x6e7520746e65696c,%rax
  4027c8:	20 75 6e 
  4027cb:	48 89 43 08          	mov    %rax,0x8(%rbx)
  4027cf:	48 b8 61 62 6c 65 20 	movabs $0x206f7420656c6261,%rax
  4027d6:	74 6f 20 
  4027d9:	48 89 43 10          	mov    %rax,0x10(%rbx)
  4027dd:	48 b8 72 65 61 64 20 	movabs $0x6165682064616572,%rax
  4027e4:	68 65 61 
  4027e7:	48 89 43 18          	mov    %rax,0x18(%rbx)
  4027eb:	48 b8 64 65 72 73 20 	movabs $0x6f72662073726564,%rax
  4027f2:	66 72 6f 
  4027f5:	48 89 43 20          	mov    %rax,0x20(%rbx)
  4027f9:	48 b8 6d 20 74 68 65 	movabs $0x657220656874206d,%rax
  402800:	20 72 65 
  402803:	48 89 43 28          	mov    %rax,0x28(%rbx)
  402807:	48 b8 73 75 6c 74 20 	movabs $0x72657320746c7573,%rax
  40280e:	73 65 72 
  402811:	48 89 43 30          	mov    %rax,0x30(%rbx)
  402815:	c7 43 38 76 65 72 00 	movl   $0x726576,0x38(%rbx)
  40281c:	89 ef                	mov    %ebp,%edi
  40281e:	e8 6d e4 ff ff       	callq  400c90 <close@plt>
  402823:	b8 ff ff ff ff       	mov    $0xffffffff,%eax
  402828:	48 81 c4 58 a0 00 00 	add    $0xa058,%rsp
  40282f:	5b                   	pop    %rbx
  402830:	5d                   	pop    %rbp
  402831:	41 5c                	pop    %r12
  402833:	41 5d                	pop    %r13
  402835:	41 5e                	pop    %r14
  402837:	41 5f                	pop    %r15
  402839:	c3                   	retq   
  40283a:	85 c0                	test   %eax,%eax
  40283c:	74 51                	je     40288f <submitr+0x5ee>
  40283e:	48 8d b4 24 30 60 00 	lea    0x6030(%rsp),%rsi
  402845:	00 
  402846:	48 8d bc 24 30 80 00 	lea    0x8030(%rsp),%rdi
  40284d:	00 
  40284e:	ba 00 20 00 00       	mov    $0x2000,%edx
  402853:	e8 ca f9 ff ff       	callq  402222 <rio_readlineb>
  402858:	48 85 c0             	test   %rax,%rax
  40285b:	0f 8e 53 ff ff ff    	jle    4027b4 <submitr+0x513>
  402861:	0f b6 94 24 30 60 00 	movzbl 0x6030(%rsp),%edx
  402868:	00 
  402869:	b8 0d 00 00 00       	mov    $0xd,%eax
  40286e:	29 d0                	sub    %edx,%eax
  402870:	75 c8                	jne    40283a <submitr+0x599>
  402872:	0f b6 94 24 31 60 00 	movzbl 0x6031(%rsp),%edx
  402879:	00 
  40287a:	b8 0a 00 00 00       	mov    $0xa,%eax
  40287f:	29 d0                	sub    %edx,%eax
  402881:	75 b7                	jne    40283a <submitr+0x599>
  402883:	0f b6 84 24 32 60 00 	movzbl 0x6032(%rsp),%eax
  40288a:	00 
  40288b:	f7 d8                	neg    %eax
  40288d:	eb ab                	jmp    40283a <submitr+0x599>
  40288f:	48 8d b4 24 30 60 00 	lea    0x6030(%rsp),%rsi
  402896:	00 
  402897:	48 8d bc 24 30 80 00 	lea    0x8030(%rsp),%rdi
  40289e:	00 
  40289f:	ba 00 20 00 00       	mov    $0x2000,%edx
  4028a4:	e8 79 f9 ff ff       	callq  402222 <rio_readlineb>
  4028a9:	48 85 c0             	test   %rax,%rax
  4028ac:	7e 67                	jle    402915 <submitr+0x674>
  4028ae:	8b 94 24 2c 20 00 00 	mov    0x202c(%rsp),%edx
  4028b5:	81 fa c8 00 00 00    	cmp    $0xc8,%edx
  4028bb:	0f 85 d7 00 00 00    	jne    402998 <submitr+0x6f7>
  4028c1:	48 8d b4 24 30 60 00 	lea    0x6030(%rsp),%rsi
  4028c8:	00 
  4028c9:	48 89 df             	mov    %rbx,%rdi
  4028cc:	e8 4f e3 ff ff       	callq  400c20 <strcpy@plt>
  4028d1:	89 ef                	mov    %ebp,%edi
  4028d3:	e8 b8 e3 ff ff       	callq  400c90 <close@plt>
  4028d8:	0f b6 03             	movzbl (%rbx),%eax
  4028db:	ba 4f 00 00 00       	mov    $0x4f,%edx
  4028e0:	29 c2                	sub    %eax,%edx
  4028e2:	0f 85 da 00 00 00    	jne    4029c2 <submitr+0x721>
  4028e8:	0f b6 4b 01          	movzbl 0x1(%rbx),%ecx
  4028ec:	b8 4b 00 00 00       	mov    $0x4b,%eax
  4028f1:	29 c8                	sub    %ecx,%eax
  4028f3:	0f 85 cb 00 00 00    	jne    4029c4 <submitr+0x723>
  4028f9:	0f b6 4b 02          	movzbl 0x2(%rbx),%ecx
  4028fd:	b8 0a 00 00 00       	mov    $0xa,%eax
  402902:	29 c8                	sub    %ecx,%eax
  402904:	0f 85 ba 00 00 00    	jne    4029c4 <submitr+0x723>
  40290a:	0f b6 43 03          	movzbl 0x3(%rbx),%eax
  40290e:	f7 d8                	neg    %eax
  402910:	e9 af 00 00 00       	jmpq   4029c4 <submitr+0x723>
  402915:	48 b8 45 72 72 6f 72 	movabs $0x43203a726f727245,%rax
  40291c:	3a 20 43 
  40291f:	48 89 03             	mov    %rax,(%rbx)
  402922:	48 b8 6c 69 65 6e 74 	movabs $0x6e7520746e65696c,%rax
  402929:	20 75 6e 
  40292c:	48 89 43 08          	mov    %rax,0x8(%rbx)
  402930:	48 b8 61 62 6c 65 20 	movabs $0x206f7420656c6261,%rax
  402937:	74 6f 20 
  40293a:	48 89 43 10          	mov    %rax,0x10(%rbx)
  40293e:	48 b8 72 65 61 64 20 	movabs $0x6174732064616572,%rax
  402945:	73 74 61 
  402948:	48 89 43 18          	mov    %rax,0x18(%rbx)
  40294c:	48 b8 74 75 73 20 6d 	movabs $0x7373656d20737574,%rax
  402953:	65 73 73 
  402956:	48 89 43 20          	mov    %rax,0x20(%rbx)
  40295a:	48 b8 61 67 65 20 66 	movabs $0x6d6f726620656761,%rax
  402961:	72 6f 6d 
  402964:	48 89 43 28          	mov    %rax,0x28(%rbx)
  402968:	48 b8 20 72 65 73 75 	movabs $0x20746c7573657220,%rax
  40296f:	6c 74 20 
  402972:	48 89 43 30          	mov    %rax,0x30(%rbx)
  402976:	c7 43 38 73 65 72 76 	movl   $0x76726573,0x38(%rbx)
  40297d:	66 c7 43 3c 65 72    	movw   $0x7265,0x3c(%rbx)
  402983:	c6 43 3e 00          	movb   $0x0,0x3e(%rbx)
  402987:	89 ef                	mov    %ebp,%edi
  402989:	e8 02 e3 ff ff       	callq  400c90 <close@plt>
  40298e:	b8 ff ff ff ff       	mov    $0xffffffff,%eax
  402993:	e9 90 fe ff ff       	jmpq   402828 <submitr+0x587>
  402998:	48 8d 4c 24 20       	lea    0x20(%rsp),%rcx
  40299d:	48 8d 35 f4 0a 00 00 	lea    0xaf4(%rip),%rsi        # 403498 <trans_char+0x78>
  4029a4:	48 89 df             	mov    %rbx,%rdi
  4029a7:	b8 00 00 00 00       	mov    $0x0,%eax
  4029ac:	e8 ef e3 ff ff       	callq  400da0 <sprintf@plt>
  4029b1:	89 ef                	mov    %ebp,%edi
  4029b3:	e8 d8 e2 ff ff       	callq  400c90 <close@plt>
  4029b8:	b8 ff ff ff ff       	mov    $0xffffffff,%eax
  4029bd:	e9 66 fe ff ff       	jmpq   402828 <submitr+0x587>
  4029c2:	89 d0                	mov    %edx,%eax
  4029c4:	f7 d8                	neg    %eax
  4029c6:	0f 84 5c fe ff ff    	je     402828 <submitr+0x587>
  4029cc:	b9 05 00 00 00       	mov    $0x5,%ecx
  4029d1:	48 8d 3d 08 0b 00 00 	lea    0xb08(%rip),%rdi        # 4034e0 <trans_char+0xc0>
  4029d8:	48 89 de             	mov    %rbx,%rsi
  4029db:	f3 a6                	repz cmpsb %es:(%rdi),%ds:(%rsi)
  4029dd:	0f 97 c0             	seta   %al
  4029e0:	0f 92 c1             	setb   %cl
  4029e3:	29 c8                	sub    %ecx,%eax
  4029e5:	0f be c0             	movsbl %al,%eax
  4029e8:	85 c0                	test   %eax,%eax
  4029ea:	0f 84 38 fe ff ff    	je     402828 <submitr+0x587>
  4029f0:	85 d2                	test   %edx,%edx
  4029f2:	75 13                	jne    402a07 <submitr+0x766>
  4029f4:	0f b6 43 01          	movzbl 0x1(%rbx),%eax
  4029f8:	ba 4b 00 00 00       	mov    $0x4b,%edx
  4029fd:	29 c2                	sub    %eax,%edx
  4029ff:	75 06                	jne    402a07 <submitr+0x766>
  402a01:	0f b6 53 02          	movzbl 0x2(%rbx),%edx
  402a05:	f7 da                	neg    %edx
  402a07:	89 d0                	mov    %edx,%eax
  402a09:	f7 d8                	neg    %eax
  402a0b:	0f 84 17 fe ff ff    	je     402828 <submitr+0x587>
  402a11:	b8 ff ff ff ff       	mov    $0xffffffff,%eax
  402a16:	e9 0d fe ff ff       	jmpq   402828 <submitr+0x587>

0000000000402a1b <init_timeout>:
  402a1b:	85 ff                	test   %edi,%edi
  402a1d:	74 20                	je     402a3f <init_timeout+0x24>
  402a1f:	53                   	push   %rbx
  402a20:	89 fb                	mov    %edi,%ebx
  402a22:	85 ff                	test   %edi,%edi
  402a24:	78 1b                	js     402a41 <init_timeout+0x26>
  402a26:	48 8d 35 05 f6 ff ff 	lea    -0x9fb(%rip),%rsi        # 402032 <sigalrm_handler>
  402a2d:	bf 0e 00 00 00       	mov    $0xe,%edi
  402a32:	e8 79 e2 ff ff       	callq  400cb0 <signal@plt>
  402a37:	89 df                	mov    %ebx,%edi
  402a39:	e8 42 e2 ff ff       	callq  400c80 <alarm@plt>
  402a3e:	5b                   	pop    %rbx
  402a3f:	f3 c3                	repz retq 
  402a41:	bb 00 00 00 00       	mov    $0x0,%ebx
  402a46:	eb de                	jmp    402a26 <init_timeout+0xb>

0000000000402a48 <init_driver>:
  402a48:	41 54                	push   %r12
  402a4a:	55                   	push   %rbp
  402a4b:	53                   	push   %rbx
  402a4c:	48 83 ec 10          	sub    $0x10,%rsp
  402a50:	48 89 fd             	mov    %rdi,%rbp
  402a53:	be 01 00 00 00       	mov    $0x1,%esi
  402a58:	bf 0d 00 00 00       	mov    $0xd,%edi
  402a5d:	e8 4e e2 ff ff       	callq  400cb0 <signal@plt>
  402a62:	be 01 00 00 00       	mov    $0x1,%esi
  402a67:	bf 1d 00 00 00       	mov    $0x1d,%edi
  402a6c:	e8 3f e2 ff ff       	callq  400cb0 <signal@plt>
  402a71:	be 01 00 00 00       	mov    $0x1,%esi
  402a76:	bf 1d 00 00 00       	mov    $0x1d,%edi
  402a7b:	e8 30 e2 ff ff       	callq  400cb0 <signal@plt>
  402a80:	ba 00 00 00 00       	mov    $0x0,%edx
  402a85:	be 01 00 00 00       	mov    $0x1,%esi
  402a8a:	bf 02 00 00 00       	mov    $0x2,%edi
  402a8f:	e8 3c e3 ff ff       	callq  400dd0 <socket@plt>
  402a94:	85 c0                	test   %eax,%eax
  402a96:	0f 88 80 00 00 00    	js     402b1c <init_driver+0xd4>
  402a9c:	89 c3                	mov    %eax,%ebx
  402a9e:	48 8d 3d 40 0a 00 00 	lea    0xa40(%rip),%rdi        # 4034e5 <trans_char+0xc5>
  402aa5:	e8 16 e2 ff ff       	callq  400cc0 <gethostbyname@plt>
  402aaa:	48 85 c0             	test   %rax,%rax
  402aad:	0f 84 b5 00 00 00    	je     402b68 <init_driver+0x120>
  402ab3:	48 c7 04 24 00 00 00 	movq   $0x0,(%rsp)
  402aba:	00 
  402abb:	48 c7 44 24 08 00 00 	movq   $0x0,0x8(%rsp)
  402ac2:	00 00 
  402ac4:	66 c7 04 24 02 00    	movw   $0x2,(%rsp)
  402aca:	48 8b 48 18          	mov    0x18(%rax),%rcx
  402ace:	48 63 50 14          	movslq 0x14(%rax),%rdx
  402ad2:	48 8d 74 24 04       	lea    0x4(%rsp),%rsi
  402ad7:	48 8b 39             	mov    (%rcx),%rdi
  402ada:	e8 71 e2 ff ff       	callq  400d50 <bcopy@plt>
  402adf:	66 c7 44 24 02 3c a4 	movw   $0xa43c,0x2(%rsp)
  402ae6:	ba 10 00 00 00       	mov    $0x10,%edx
  402aeb:	48 89 e6             	mov    %rsp,%rsi
  402aee:	89 df                	mov    %ebx,%edi
  402af0:	e8 cb e2 ff ff       	callq  400dc0 <connect@plt>
  402af5:	85 c0                	test   %eax,%eax
  402af7:	0f 88 d3 00 00 00    	js     402bd0 <init_driver+0x188>
  402afd:	89 df                	mov    %ebx,%edi
  402aff:	e8 8c e1 ff ff       	callq  400c90 <close@plt>
  402b04:	66 c7 45 00 4f 4b    	movw   $0x4b4f,0x0(%rbp)
  402b0a:	c6 45 02 00          	movb   $0x0,0x2(%rbp)
  402b0e:	b8 00 00 00 00       	mov    $0x0,%eax
  402b13:	48 83 c4 10          	add    $0x10,%rsp
  402b17:	5b                   	pop    %rbx
  402b18:	5d                   	pop    %rbp
  402b19:	41 5c                	pop    %r12
  402b1b:	c3                   	retq   
  402b1c:	48 b8 45 72 72 6f 72 	movabs $0x43203a726f727245,%rax
  402b23:	3a 20 43 
  402b26:	48 89 45 00          	mov    %rax,0x0(%rbp)
  402b2a:	48 b8 6c 69 65 6e 74 	movabs $0x6e7520746e65696c,%rax
  402b31:	20 75 6e 
  402b34:	48 89 45 08          	mov    %rax,0x8(%rbp)
  402b38:	48 b8 61 62 6c 65 20 	movabs $0x206f7420656c6261,%rax
  402b3f:	74 6f 20 
  402b42:	48 89 45 10          	mov    %rax,0x10(%rbp)
  402b46:	48 b8 63 72 65 61 74 	movabs $0x7320657461657263,%rax
  402b4d:	65 20 73 
  402b50:	48 89 45 18          	mov    %rax,0x18(%rbp)
  402b54:	c7 45 20 6f 63 6b 65 	movl   $0x656b636f,0x20(%rbp)
  402b5b:	66 c7 45 24 74 00    	movw   $0x74,0x24(%rbp)
  402b61:	b8 ff ff ff ff       	mov    $0xffffffff,%eax
  402b66:	eb ab                	jmp    402b13 <init_driver+0xcb>
  402b68:	48 b8 45 72 72 6f 72 	movabs $0x44203a726f727245,%rax
  402b6f:	3a 20 44 
  402b72:	48 89 45 00          	mov    %rax,0x0(%rbp)
  402b76:	48 b8 4e 53 20 69 73 	movabs $0x6e7520736920534e,%rax
  402b7d:	20 75 6e 
  402b80:	48 89 45 08          	mov    %rax,0x8(%rbp)
  402b84:	48 b8 61 62 6c 65 20 	movabs $0x206f7420656c6261,%rax
  402b8b:	74 6f 20 
  402b8e:	48 89 45 10          	mov    %rax,0x10(%rbp)
  402b92:	48 b8 72 65 73 6f 6c 	movabs $0x2065766c6f736572,%rax
  402b99:	76 65 20 
  402b9c:	48 89 45 18          	mov    %rax,0x18(%rbp)
  402ba0:	48 b8 73 65 72 76 65 	movabs $0x6120726576726573,%rax
  402ba7:	72 20 61 
  402baa:	48 89 45 20          	mov    %rax,0x20(%rbp)
  402bae:	c7 45 28 64 64 72 65 	movl   $0x65726464,0x28(%rbp)
  402bb5:	66 c7 45 2c 73 73    	movw   $0x7373,0x2c(%rbp)
  402bbb:	c6 45 2e 00          	movb   $0x0,0x2e(%rbp)
  402bbf:	89 df                	mov    %ebx,%edi
  402bc1:	e8 ca e0 ff ff       	callq  400c90 <close@plt>
  402bc6:	b8 ff ff ff ff       	mov    $0xffffffff,%eax
  402bcb:	e9 43 ff ff ff       	jmpq   402b13 <init_driver+0xcb>
  402bd0:	48 b8 45 72 72 6f 72 	movabs $0x55203a726f727245,%rax
  402bd7:	3a 20 55 
  402bda:	48 89 45 00          	mov    %rax,0x0(%rbp)
  402bde:	48 b8 6e 61 62 6c 65 	movabs $0x6f7420656c62616e,%rax
  402be5:	20 74 6f 
  402be8:	48 89 45 08          	mov    %rax,0x8(%rbp)
  402bec:	48 b8 20 63 6f 6e 6e 	movabs $0x7463656e6e6f6320,%rax
  402bf3:	65 63 74 
  402bf6:	48 89 45 10          	mov    %rax,0x10(%rbp)
  402bfa:	48 b8 20 74 6f 20 73 	movabs $0x76726573206f7420,%rax
  402c01:	65 72 76 
  402c04:	48 89 45 18          	mov    %rax,0x18(%rbp)
  402c08:	66 c7 45 20 65 72    	movw   $0x7265,0x20(%rbp)
  402c0e:	c6 45 22 00          	movb   $0x0,0x22(%rbp)
  402c12:	89 df                	mov    %ebx,%edi
  402c14:	e8 77 e0 ff ff       	callq  400c90 <close@plt>
  402c19:	b8 ff ff ff ff       	mov    $0xffffffff,%eax
  402c1e:	e9 f0 fe ff ff       	jmpq   402b13 <init_driver+0xcb>

0000000000402c23 <driver_post>:
  402c23:	53                   	push   %rbx
  402c24:	4c 89 cb             	mov    %r9,%rbx
  402c27:	45 85 c0             	test   %r8d,%r8d
  402c2a:	75 18                	jne    402c44 <driver_post+0x21>
  402c2c:	48 85 ff             	test   %rdi,%rdi
  402c2f:	74 05                	je     402c36 <driver_post+0x13>
  402c31:	80 3f 00             	cmpb   $0x0,(%rdi)
  402c34:	75 32                	jne    402c68 <driver_post+0x45>
  402c36:	66 c7 03 4f 4b       	movw   $0x4b4f,(%rbx)
  402c3b:	c6 43 02 00          	movb   $0x0,0x2(%rbx)
  402c3f:	44 89 c0             	mov    %r8d,%eax
  402c42:	5b                   	pop    %rbx
  402c43:	c3                   	retq   
  402c44:	48 89 ce             	mov    %rcx,%rsi
  402c47:	48 8d 3d a5 08 00 00 	lea    0x8a5(%rip),%rdi        # 4034f3 <trans_char+0xd3>
  402c4e:	b8 00 00 00 00       	mov    $0x0,%eax
  402c53:	e8 08 e0 ff ff       	callq  400c60 <printf@plt>
  402c58:	66 c7 03 4f 4b       	movw   $0x4b4f,(%rbx)
  402c5d:	c6 43 02 00          	movb   $0x0,0x2(%rbx)
  402c61:	b8 00 00 00 00       	mov    $0x0,%eax
  402c66:	eb da                	jmp    402c42 <driver_post+0x1f>
  402c68:	48 83 ec 08          	sub    $0x8,%rsp
  402c6c:	41 51                	push   %r9
  402c6e:	49 89 c9             	mov    %rcx,%r9
  402c71:	49 89 d0             	mov    %rdx,%r8
  402c74:	48 89 f9             	mov    %rdi,%rcx
  402c77:	48 89 f2             	mov    %rsi,%rdx
  402c7a:	be a4 3c 00 00       	mov    $0x3ca4,%esi
  402c7f:	48 8d 3d 5f 08 00 00 	lea    0x85f(%rip),%rdi        # 4034e5 <trans_char+0xc5>
  402c86:	e8 16 f6 ff ff       	callq  4022a1 <submitr>
  402c8b:	48 83 c4 10          	add    $0x10,%rsp
  402c8f:	eb b1                	jmp    402c42 <driver_post+0x1f>

0000000000402c91 <check>:
  402c91:	89 f8                	mov    %edi,%eax
  402c93:	c1 e8 1c             	shr    $0x1c,%eax
  402c96:	85 c0                	test   %eax,%eax
  402c98:	74 1d                	je     402cb7 <check+0x26>
  402c9a:	b9 00 00 00 00       	mov    $0x0,%ecx
  402c9f:	83 f9 1f             	cmp    $0x1f,%ecx
  402ca2:	7f 0d                	jg     402cb1 <check+0x20>
  402ca4:	89 f8                	mov    %edi,%eax
  402ca6:	d3 e8                	shr    %cl,%eax
  402ca8:	3c 0a                	cmp    $0xa,%al
  402caa:	74 11                	je     402cbd <check+0x2c>
  402cac:	83 c1 08             	add    $0x8,%ecx
  402caf:	eb ee                	jmp    402c9f <check+0xe>
  402cb1:	b8 01 00 00 00       	mov    $0x1,%eax
  402cb6:	c3                   	retq   
  402cb7:	b8 00 00 00 00       	mov    $0x0,%eax
  402cbc:	c3                   	retq   
  402cbd:	b8 00 00 00 00       	mov    $0x0,%eax
  402cc2:	c3                   	retq   

0000000000402cc3 <gencookie>:
  402cc3:	53                   	push   %rbx
  402cc4:	83 c7 01             	add    $0x1,%edi
  402cc7:	e8 34 df ff ff       	callq  400c00 <srandom@plt>
  402ccc:	e8 3f e0 ff ff       	callq  400d10 <random@plt>
  402cd1:	89 c3                	mov    %eax,%ebx
  402cd3:	89 c7                	mov    %eax,%edi
  402cd5:	e8 b7 ff ff ff       	callq  402c91 <check>
  402cda:	85 c0                	test   %eax,%eax
  402cdc:	74 ee                	je     402ccc <gencookie+0x9>
  402cde:	89 d8                	mov    %ebx,%eax
  402ce0:	5b                   	pop    %rbx
  402ce1:	c3                   	retq   
  402ce2:	66 2e 0f 1f 84 00 00 	nopw   %cs:0x0(%rax,%rax,1)
  402ce9:	00 00 00 
  402cec:	0f 1f 40 00          	nopl   0x0(%rax)

0000000000402cf0 <__libc_csu_init>:
  402cf0:	41 57                	push   %r15
  402cf2:	41 56                	push   %r14
  402cf4:	41 89 ff             	mov    %edi,%r15d
  402cf7:	41 55                	push   %r13
  402cf9:	41 54                	push   %r12
  402cfb:	4c 8d 25 06 21 20 00 	lea    0x202106(%rip),%r12        # 604e08 <__frame_dummy_init_array_entry>
  402d02:	55                   	push   %rbp
  402d03:	48 8d 2d 06 21 20 00 	lea    0x202106(%rip),%rbp        # 604e10 <__init_array_end>
  402d0a:	53                   	push   %rbx
  402d0b:	49 89 f6             	mov    %rsi,%r14
  402d0e:	49 89 d5             	mov    %rdx,%r13
  402d11:	4c 29 e5             	sub    %r12,%rbp
  402d14:	48 83 ec 08          	sub    $0x8,%rsp
  402d18:	48 c1 fd 03          	sar    $0x3,%rbp
  402d1c:	e8 8f de ff ff       	callq  400bb0 <_init>
  402d21:	48 85 ed             	test   %rbp,%rbp
  402d24:	74 20                	je     402d46 <__libc_csu_init+0x56>
  402d26:	31 db                	xor    %ebx,%ebx
  402d28:	0f 1f 84 00 00 00 00 	nopl   0x0(%rax,%rax,1)
  402d2f:	00 
  402d30:	4c 89 ea             	mov    %r13,%rdx
  402d33:	4c 89 f6             	mov    %r14,%rsi
  402d36:	44 89 ff             	mov    %r15d,%edi
  402d39:	41 ff 14 dc          	callq  *(%r12,%rbx,8)
  402d3d:	48 83 c3 01          	add    $0x1,%rbx
  402d41:	48 39 dd             	cmp    %rbx,%rbp
  402d44:	75 ea                	jne    402d30 <__libc_csu_init+0x40>
  402d46:	48 83 c4 08          	add    $0x8,%rsp
  402d4a:	5b                   	pop    %rbx
  402d4b:	5d                   	pop    %rbp
  402d4c:	41 5c                	pop    %r12
  402d4e:	41 5d                	pop    %r13
  402d50:	41 5e                	pop    %r14
  402d52:	41 5f                	pop    %r15
  402d54:	c3                   	retq   
  402d55:	90                   	nop
  402d56:	66 2e 0f 1f 84 00 00 	nopw   %cs:0x0(%rax,%rax,1)
  402d5d:	00 00 00 

0000000000402d60 <__libc_csu_fini>:
  402d60:	f3 c3                	repz retq 

Disassembly of section .fini:

0000000000402d64 <_fini>:
  402d64:	48 83 ec 08          	sub    $0x8,%rsp
  402d68:	48 83 c4 08          	add    $0x8,%rsp
  402d6c:	c3                   	retq   
